
Diagnostyczne.elf:     file format elf32-avr

Sections:
Idx Name          Size      VMA       LMA       File off  Algn
  0 .data         00000340  00800100  00002408  0000249c  2**0
                  CONTENTS, ALLOC, LOAD, DATA
  1 .text         00002408  00000000  00000000  00000094  2**1
                  CONTENTS, ALLOC, LOAD, READONLY, CODE
  2 .bss          00000231  00800440  00800440  000027dc  2**0
                  ALLOC
  3 .comment      00000030  00000000  00000000  000027dc  2**0
                  CONTENTS, READONLY
  4 .note.gnu.avr.deviceinfo 00000040  00000000  00000000  0000280c  2**2
                  CONTENTS, READONLY
  5 .debug_aranges 00000140  00000000  00000000  0000284c  2**0
                  CONTENTS, READONLY, DEBUGGING
  6 .debug_info   00003045  00000000  00000000  0000298c  2**0
                  CONTENTS, READONLY, DEBUGGING
  7 .debug_abbrev 000005dd  00000000  00000000  000059d1  2**0
                  CONTENTS, READONLY, DEBUGGING
  8 .debug_line   00000d0a  00000000  00000000  00005fae  2**0
                  CONTENTS, READONLY, DEBUGGING
  9 .debug_frame  00000364  00000000  00000000  00006cb8  2**2
                  CONTENTS, READONLY, DEBUGGING
 10 .debug_str    000004c9  00000000  00000000  0000701c  2**0
                  CONTENTS, READONLY, DEBUGGING
 11 .debug_loc    00001c1f  00000000  00000000  000074e5  2**0
                  CONTENTS, READONLY, DEBUGGING
 12 .debug_ranges 00000100  00000000  00000000  00009104  2**0
                  CONTENTS, READONLY, DEBUGGING

Disassembly of section .text:

00000000 <__vectors>:
       0:	0c 94 b8 00 	jmp	0x170	; 0x170 <__ctors_end>
       4:	0c 94 57 0d 	jmp	0x1aae	; 0x1aae <__vector_1>
       8:	0c 94 87 0d 	jmp	0x1b0e	; 0x1b0e <__vector_2>
       c:	0c 94 d5 00 	jmp	0x1aa	; 0x1aa <__bad_interrupt>
      10:	0c 94 d5 00 	jmp	0x1aa	; 0x1aa <__bad_interrupt>
      14:	0c 94 d5 00 	jmp	0x1aa	; 0x1aa <__bad_interrupt>
      18:	0c 94 d5 00 	jmp	0x1aa	; 0x1aa <__bad_interrupt>
      1c:	0c 94 d5 00 	jmp	0x1aa	; 0x1aa <__bad_interrupt>
      20:	0c 94 d5 00 	jmp	0x1aa	; 0x1aa <__bad_interrupt>
      24:	0c 94 d5 00 	jmp	0x1aa	; 0x1aa <__bad_interrupt>
      28:	0c 94 d5 00 	jmp	0x1aa	; 0x1aa <__bad_interrupt>
      2c:	0c 94 b7 0d 	jmp	0x1b6e	; 0x1b6e <__vector_11>
      30:	0c 94 d5 00 	jmp	0x1aa	; 0x1aa <__bad_interrupt>
      34:	0c 94 d5 00 	jmp	0x1aa	; 0x1aa <__bad_interrupt>
      38:	0c 94 d5 00 	jmp	0x1aa	; 0x1aa <__bad_interrupt>
      3c:	0c 94 d5 00 	jmp	0x1aa	; 0x1aa <__bad_interrupt>
      40:	0c 94 d5 00 	jmp	0x1aa	; 0x1aa <__bad_interrupt>
      44:	0c 94 d5 00 	jmp	0x1aa	; 0x1aa <__bad_interrupt>
      48:	0c 94 d5 00 	jmp	0x1aa	; 0x1aa <__bad_interrupt>
      4c:	0c 94 d5 00 	jmp	0x1aa	; 0x1aa <__bad_interrupt>
      50:	0c 94 d5 00 	jmp	0x1aa	; 0x1aa <__bad_interrupt>
      54:	0c 94 d5 00 	jmp	0x1aa	; 0x1aa <__bad_interrupt>
      58:	0c 94 d5 00 	jmp	0x1aa	; 0x1aa <__bad_interrupt>
      5c:	0c 94 d5 00 	jmp	0x1aa	; 0x1aa <__bad_interrupt>
      60:	0c 94 d5 00 	jmp	0x1aa	; 0x1aa <__bad_interrupt>
      64:	0c 94 d5 00 	jmp	0x1aa	; 0x1aa <__bad_interrupt>
      68:	1c 0d       	add	r17, r12
      6a:	21 0d       	add	r18, r1
      6c:	26 0d       	add	r18, r6
      6e:	2b 0d       	add	r18, r11
      70:	30 0d       	add	r19, r0
      72:	35 0d       	add	r19, r5
      74:	3a 0d       	add	r19, r10

00000076 <__trampolines_end>:
      76:	00 40       	sbci	r16, 0x00	; 0
      78:	7a 10       	cpse	r7, r10
      7a:	f3 5a       	subi	r31, 0xA3	; 163
      7c:	00 a0       	ldd	r0, Z+32	; 0x20
      7e:	72 4e       	sbci	r23, 0xE2	; 226
      80:	18 09       	sbc	r17, r8
      82:	00 10       	cpse	r0, r0
      84:	a5 d4       	rcall	.+2378   	; 0x9d0 <__stack+0xd1>
      86:	e8 00       	.word	0x00e8	; ????
      88:	00 e8       	ldi	r16, 0x80	; 128
      8a:	76 48       	sbci	r23, 0x86	; 134
      8c:	17 00       	.word	0x0017	; ????
      8e:	00 e4       	ldi	r16, 0x40	; 64
      90:	0b 54       	subi	r16, 0x4B	; 75
      92:	02 00       	.word	0x0002	; ????
      94:	00 ca       	rjmp	.-3072   	; 0xfffff496 <__eeprom_end+0xff7ef496>
      96:	9a 3b       	cpi	r25, 0xBA	; 186
      98:	00 00       	nop
      9a:	00 e1       	ldi	r16, 0x10	; 16
      9c:	f5 05       	cpc	r31, r5
      9e:	00 00       	nop
      a0:	80 96       	adiw	r24, 0x20	; 32
      a2:	98 00       	.word	0x0098	; ????
      a4:	00 00       	nop
      a6:	40 42       	sbci	r20, 0x20	; 32
      a8:	0f 00       	.word	0x000f	; ????
      aa:	00 00       	nop
      ac:	a0 86       	std	Z+8, r10	; 0x08
      ae:	01 00       	.word	0x0001	; ????
      b0:	00 00       	nop
      b2:	10 27       	eor	r17, r16
      b4:	00 00       	nop
      b6:	00 00       	nop
      b8:	e8 03       	fmulsu	r22, r16
      ba:	00 00       	nop
      bc:	00 00       	nop
      be:	64 00       	.word	0x0064	; ????
      c0:	00 00       	nop
      c2:	00 00       	nop
      c4:	0a 00       	.word	0x000a	; ????
      c6:	00 00       	nop
      c8:	00 00       	nop
      ca:	01 00       	.word	0x0001	; ????
      cc:	00 00       	nop
      ce:	00 00       	nop
      d0:	2c 76       	andi	r18, 0x6C	; 108
      d2:	d8 88       	ldd	r13, Y+16	; 0x10
      d4:	dc 67       	ori	r29, 0x7C	; 124
      d6:	4f 08       	sbc	r4, r15
      d8:	23 df       	rcall	.-442    	; 0xffffff20 <__eeprom_end+0xff7eff20>
      da:	c1 df       	rcall	.-126    	; 0x5e <__SREG__+0x1f>
      dc:	ae 59       	subi	r26, 0x9E	; 158
      de:	e1 b1       	in	r30, 0x01	; 1
      e0:	b7 96       	adiw	r30, 0x27	; 39
      e2:	e5 e3       	ldi	r30, 0x35	; 53
      e4:	e4 53       	subi	r30, 0x34	; 52
      e6:	c6 3a       	cpi	r28, 0xA6	; 166
      e8:	e6 51       	subi	r30, 0x16	; 22
      ea:	99 76       	andi	r25, 0x69	; 105
      ec:	96 e8       	ldi	r25, 0x86	; 134
      ee:	e6 c2       	rjmp	.+1484   	; 0x6bc <Wybor_funkcji+0xe4>
      f0:	84 26       	eor	r8, r20
      f2:	eb 89       	ldd	r30, Y+19	; 0x13
      f4:	8c 9b       	sbis	0x11, 4	; 17
      f6:	62 ed       	ldi	r22, 0xD2	; 210
      f8:	40 7c       	andi	r20, 0xC0	; 192
      fa:	6f fc       	.word	0xfc6f	; ????
      fc:	ef bc       	out	0x2f, r14	; 47
      fe:	9c 9f       	mul	r25, r28
     100:	40 f2       	brcs	.-112    	; 0x92 <__trampolines_end+0x1c>
     102:	ba a5       	ldd	r27, Y+42	; 0x2a
     104:	6f a5       	ldd	r22, Y+47	; 0x2f
     106:	f4 90       	lpm	r15, Z
     108:	05 5a       	subi	r16, 0xA5	; 165
     10a:	2a f7       	brpl	.-54     	; 0xd6 <__trampolines_end+0x60>
     10c:	5c 93       	st	X, r21
     10e:	6b 6c       	ori	r22, 0xCB	; 203
     110:	f9 67       	ori	r31, 0x79	; 121
     112:	6d c1       	rjmp	.+730    	; 0x3ee <Inicjalizacja_SD+0xf6>
     114:	1b fc       	.word	0xfc1b	; ????
     116:	e0 e4       	ldi	r30, 0x40	; 64
     118:	0d 47       	sbci	r16, 0x7D	; 125
     11a:	fe f5       	brtc	.+126    	; 0x19a <.do_clear_bss_loop>
     11c:	20 e6       	ldi	r18, 0x60	; 96
     11e:	b5 00       	.word	0x00b5	; ????
     120:	d0 ed       	ldi	r29, 0xD0	; 208
     122:	90 2e       	mov	r9, r16
     124:	03 00       	.word	0x0003	; ????
     126:	94 35       	cpi	r25, 0x54	; 84
     128:	77 05       	cpc	r23, r7
     12a:	00 80       	ld	r0, Z
     12c:	84 1e       	adc	r8, r20
     12e:	08 00       	.word	0x0008	; ????
     130:	00 20       	and	r0, r0
     132:	4e 0a       	sbc	r4, r30
     134:	00 00       	nop
     136:	00 c8       	rjmp	.-4096   	; 0xfffff138 <__eeprom_end+0xff7ef138>
     138:	0c 33       	cpi	r16, 0x3C	; 60
     13a:	33 33       	cpi	r19, 0x33	; 51
     13c:	33 0f       	add	r19, r19
     13e:	98 6e       	ori	r25, 0xE8	; 232
     140:	12 83       	std	Z+2, r17	; 0x02
     142:	11 41       	sbci	r17, 0x11	; 17
     144:	ef 8d       	ldd	r30, Y+31	; 0x1f
     146:	21 14       	cp	r2, r1
     148:	89 3b       	cpi	r24, 0xB9	; 185
     14a:	e6 55       	subi	r30, 0x56	; 86
     14c:	16 cf       	rjmp	.-468    	; 0xffffff7a <__eeprom_end+0xff7eff7a>
     14e:	fe e6       	ldi	r31, 0x6E	; 110
     150:	db 18       	sub	r13, r11
     152:	d1 84       	ldd	r13, Z+9	; 0x09
     154:	4b 38       	cpi	r20, 0x8B	; 139
     156:	1b f7       	brvc	.-58     	; 0x11e <__trampolines_end+0xa8>
     158:	7c 1d       	adc	r23, r12
     15a:	90 1d       	adc	r25, r0
     15c:	a4 bb       	out	0x14, r26	; 20
     15e:	e4 24       	eor	r14, r4
     160:	20 32       	cpi	r18, 0x20	; 32
     162:	84 72       	andi	r24, 0x24	; 36
     164:	5e 22       	and	r5, r30
     166:	81 00       	.word	0x0081	; ????
     168:	c9 f1       	breq	.+114    	; 0x1dc <_LCD_Write+0x4>
     16a:	24 ec       	ldi	r18, 0xC4	; 196
     16c:	a1 e5       	ldi	r26, 0x51	; 81
     16e:	3d 27       	eor	r19, r29

00000170 <__ctors_end>:
     170:	11 24       	eor	r1, r1
     172:	1f be       	out	0x3f, r1	; 63
     174:	cf ef       	ldi	r28, 0xFF	; 255
     176:	d8 e0       	ldi	r29, 0x08	; 8
     178:	de bf       	out	0x3e, r29	; 62
     17a:	cd bf       	out	0x3d, r28	; 61

0000017c <__do_copy_data>:
     17c:	14 e0       	ldi	r17, 0x04	; 4
     17e:	a0 e0       	ldi	r26, 0x00	; 0
     180:	b1 e0       	ldi	r27, 0x01	; 1
     182:	e8 e0       	ldi	r30, 0x08	; 8
     184:	f4 e2       	ldi	r31, 0x24	; 36
     186:	02 c0       	rjmp	.+4      	; 0x18c <__do_copy_data+0x10>
     188:	05 90       	lpm	r0, Z+
     18a:	0d 92       	st	X+, r0
     18c:	a0 34       	cpi	r26, 0x40	; 64
     18e:	b1 07       	cpc	r27, r17
     190:	d9 f7       	brne	.-10     	; 0x188 <__do_copy_data+0xc>

00000192 <__do_clear_bss>:
     192:	26 e0       	ldi	r18, 0x06	; 6
     194:	a0 e4       	ldi	r26, 0x40	; 64
     196:	b4 e0       	ldi	r27, 0x04	; 4
     198:	01 c0       	rjmp	.+2      	; 0x19c <.do_clear_bss_start>

0000019a <.do_clear_bss_loop>:
     19a:	1d 92       	st	X+, r1

0000019c <.do_clear_bss_start>:
     19c:	a1 37       	cpi	r26, 0x71	; 113
     19e:	b2 07       	cpc	r27, r18
     1a0:	e1 f7       	brne	.-8      	; 0x19a <.do_clear_bss_loop>
     1a2:	0e 94 f2 0c 	call	0x19e4	; 0x19e4 <main>
     1a6:	0c 94 02 12 	jmp	0x2404	; 0x2404 <_exit>

000001aa <__bad_interrupt>:
     1aa:	0c 94 00 00 	jmp	0	; 0x0 <__vectors>

000001ae <_LCD_OutNibble>:
// Funkcja wystawiaj¹ca pó³bajt na magistralê danych
//
//-------------------------------------------------------------------------------------------------
void _LCD_OutNibble(unsigned char nibbleToWrite)
{
if(nibbleToWrite & 0x01)
     1ae:	80 ff       	sbrs	r24, 0
     1b0:	02 c0       	rjmp	.+4      	; 0x1b6 <_LCD_OutNibble+0x8>
	LCD_DB4_PORT |= LCD_DB4;
     1b2:	44 9a       	sbi	0x08, 4	; 8
     1b4:	01 c0       	rjmp	.+2      	; 0x1b8 <_LCD_OutNibble+0xa>
else
	LCD_DB4_PORT  &= ~LCD_DB4;
     1b6:	44 98       	cbi	0x08, 4	; 8

if(nibbleToWrite & 0x02)
     1b8:	81 ff       	sbrs	r24, 1
     1ba:	02 c0       	rjmp	.+4      	; 0x1c0 <_LCD_OutNibble+0x12>
	LCD_DB5_PORT |= LCD_DB5;
     1bc:	43 9a       	sbi	0x08, 3	; 8
     1be:	01 c0       	rjmp	.+2      	; 0x1c2 <_LCD_OutNibble+0x14>
else
	LCD_DB5_PORT  &= ~LCD_DB5;
     1c0:	43 98       	cbi	0x08, 3	; 8

if(nibbleToWrite & 0x04)
     1c2:	82 ff       	sbrs	r24, 2
     1c4:	02 c0       	rjmp	.+4      	; 0x1ca <_LCD_OutNibble+0x1c>
	LCD_DB6_PORT |= LCD_DB6;
     1c6:	42 9a       	sbi	0x08, 2	; 8
     1c8:	01 c0       	rjmp	.+2      	; 0x1cc <_LCD_OutNibble+0x1e>
else
	LCD_DB6_PORT  &= ~LCD_DB6;
     1ca:	42 98       	cbi	0x08, 2	; 8

if(nibbleToWrite & 0x08)
     1cc:	83 ff       	sbrs	r24, 3
     1ce:	02 c0       	rjmp	.+4      	; 0x1d4 <_LCD_OutNibble+0x26>
	LCD_DB7_PORT |= LCD_DB7;
     1d0:	41 9a       	sbi	0x08, 1	; 8
     1d2:	08 95       	ret
else
	LCD_DB7_PORT  &= ~LCD_DB7;
     1d4:	41 98       	cbi	0x08, 1	; 8
     1d6:	08 95       	ret

000001d8 <_LCD_Write>:
//
// Funkcja zapisu bajtu do wyœwietacza (bez rozró¿nienia instrukcja/dane).
//
//-------------------------------------------------------------------------------------------------
void _LCD_Write(unsigned char dataToWrite)
{
     1d8:	cf 93       	push	r28
     1da:	c8 2f       	mov	r28, r24
LCD_E_PORT |= LCD_E;
     1dc:	45 9a       	sbi	0x08, 5	; 8
_LCD_OutNibble(dataToWrite >> 4);
     1de:	82 95       	swap	r24
     1e0:	8f 70       	andi	r24, 0x0F	; 15
     1e2:	0e 94 d7 00 	call	0x1ae	; 0x1ae <_LCD_OutNibble>
LCD_E_PORT &= ~LCD_E;
     1e6:	45 98       	cbi	0x08, 5	; 8
//_delay_us(1);
LCD_E_PORT |= LCD_E;
     1e8:	45 9a       	sbi	0x08, 5	; 8
_LCD_OutNibble(dataToWrite);
     1ea:	8c 2f       	mov	r24, r28
     1ec:	0e 94 d7 00 	call	0x1ae	; 0x1ae <_LCD_OutNibble>
LCD_E_PORT &= ~LCD_E;
     1f0:	45 98       	cbi	0x08, 5	; 8
	#else
		//round up by default
		__ticks_dc = (uint32_t)(ceil(fabs(__tmp)));
	#endif

	__builtin_avr_delay_cycles(__ticks_dc);
     1f2:	80 e5       	ldi	r24, 0x50	; 80
     1f4:	8a 95       	dec	r24
     1f6:	f1 f7       	brne	.-4      	; 0x1f4 <_LCD_Write+0x1c>
_delay_us(60);
}
     1f8:	cf 91       	pop	r28
     1fa:	08 95       	ret

000001fc <LCD_WriteCommand>:
// Funkcja zapisu rozkazu do wyœwietlacza
//
//-------------------------------------------------------------------------------------------------
void LCD_WriteCommand(unsigned char commandToWrite)
{
LCD_RS_PORT &= ~LCD_RS;
     1fc:	58 98       	cbi	0x0b, 0	; 11
_LCD_Write(commandToWrite);
     1fe:	0e 94 ec 00 	call	0x1d8	; 0x1d8 <_LCD_Write>
     202:	08 95       	ret

00000204 <LCD_WriteData>:
// Funkcja zapisu danych do pamiêci wyœwietlacza
//
//-------------------------------------------------------------------------------------------------
void LCD_WriteData(unsigned char dataToWrite)
{
LCD_RS_PORT |= LCD_RS;
     204:	58 9a       	sbi	0x0b, 0	; 11
_LCD_Write(dataToWrite);
     206:	0e 94 ec 00 	call	0x1d8	; 0x1d8 <_LCD_Write>
     20a:	08 95       	ret

0000020c <LCD_WriteText>:
//
// Funkcja wyœwietlenia napisu na wyswietlaczu.
//
//-------------------------------------------------------------------------------------------------
void LCD_WriteText(char * text)
{
     20c:	cf 93       	push	r28
     20e:	df 93       	push	r29
     210:	ec 01       	movw	r28, r24
while(*text)
     212:	88 81       	ld	r24, Y
     214:	88 23       	and	r24, r24
     216:	31 f0       	breq	.+12     	; 0x224 <LCD_WriteText+0x18>
     218:	21 96       	adiw	r28, 0x01	; 1
  LCD_WriteData(*text++);
     21a:	0e 94 02 01 	call	0x204	; 0x204 <LCD_WriteData>
// Funkcja wyœwietlenia napisu na wyswietlaczu.
//
//-------------------------------------------------------------------------------------------------
void LCD_WriteText(char * text)
{
while(*text)
     21e:	89 91       	ld	r24, Y+
     220:	81 11       	cpse	r24, r1
     222:	fb cf       	rjmp	.-10     	; 0x21a <LCD_WriteText+0xe>
  LCD_WriteData(*text++);
}
     224:	df 91       	pop	r29
     226:	cf 91       	pop	r28
     228:	08 95       	ret

0000022a <LCD_GoTo>:
// Funkcja ustawienia wspó³rzêdnych ekranowych
//
//-------------------------------------------------------------------------------------------------
void LCD_GoTo(unsigned char x, unsigned char y)
{
LCD_WriteCommand(HD44780_DDRAM_SET | (x + (0x40 * y)));
     22a:	90 e4       	ldi	r25, 0x40	; 64
     22c:	69 9f       	mul	r22, r25
     22e:	80 0d       	add	r24, r0
     230:	11 24       	eor	r1, r1
     232:	80 68       	ori	r24, 0x80	; 128
     234:	0e 94 fe 00 	call	0x1fc	; 0x1fc <LCD_WriteCommand>
     238:	08 95       	ret

0000023a <LCD_Clear>:
// Funkcja czyszczenia ekranu wyœwietlacza.
//
//-------------------------------------------------------------------------------------------------
void LCD_Clear(void)
{
LCD_WriteCommand(HD44780_CLEAR);
     23a:	81 e0       	ldi	r24, 0x01	; 1
     23c:	0e 94 fe 00 	call	0x1fc	; 0x1fc <LCD_WriteCommand>
	#else
		//round up by default
		__ticks_dc = (uint32_t)(ceil(fabs(__tmp)));
	#endif

	__builtin_avr_delay_cycles(__ticks_dc);
     240:	8f ec       	ldi	r24, 0xCF	; 207
     242:	97 e0       	ldi	r25, 0x07	; 7
     244:	01 97       	sbiw	r24, 0x01	; 1
     246:	f1 f7       	brne	.-4      	; 0x244 <LCD_Clear+0xa>
     248:	00 c0       	rjmp	.+0      	; 0x24a <LCD_Clear+0x10>
     24a:	00 00       	nop
     24c:	08 95       	ret

0000024e <LCD_Home>:
// Funkcja przywrócenia pocz¹tkowych wspó³rzêdnych wyœwietlacza.
//
//-------------------------------------------------------------------------------------------------
void LCD_Home(void)
{
LCD_WriteCommand(HD44780_HOME);
     24e:	82 e0       	ldi	r24, 0x02	; 2
     250:	0e 94 fe 00 	call	0x1fc	; 0x1fc <LCD_WriteCommand>
     254:	8f ec       	ldi	r24, 0xCF	; 207
     256:	97 e0       	ldi	r25, 0x07	; 7
     258:	01 97       	sbiw	r24, 0x01	; 1
     25a:	f1 f7       	brne	.-4      	; 0x258 <LCD_Home+0xa>
     25c:	00 c0       	rjmp	.+0      	; 0x25e <LCD_Home+0x10>
     25e:	00 00       	nop
     260:	08 95       	ret

00000262 <LCD_Initalize>:
//
// Procedura inicjalizacji kontrolera HD44780.
//
//-------------------------------------------------------------------------------------------------
void LCD_Initalize(void)
{
     262:	cf 93       	push	r28
unsigned char i;
LCD_DB4_DIR |= LCD_DB4; // Konfiguracja kierunku pracy wyprowadzeñ
     264:	3c 9a       	sbi	0x07, 4	; 7
LCD_DB5_DIR |= LCD_DB5; //
     266:	3b 9a       	sbi	0x07, 3	; 7
LCD_DB6_DIR |= LCD_DB6; //
     268:	3a 9a       	sbi	0x07, 2	; 7
LCD_DB7_DIR |= LCD_DB7; //
     26a:	39 9a       	sbi	0x07, 1	; 7
LCD_E_DIR 	|= LCD_E;   //
     26c:	3d 9a       	sbi	0x07, 5	; 7
LCD_RS_DIR 	|= LCD_RS;  //
     26e:	50 9a       	sbi	0x0a, 0	; 10
     270:	87 e9       	ldi	r24, 0x97	; 151
     272:	9a e3       	ldi	r25, 0x3A	; 58
     274:	01 97       	sbiw	r24, 0x01	; 1
     276:	f1 f7       	brne	.-4      	; 0x274 <LCD_Initalize+0x12>
     278:	00 c0       	rjmp	.+0      	; 0x27a <LCD_Initalize+0x18>
     27a:	00 00       	nop
_delay_ms(15); // oczekiwanie na ustalibizowanie siê napiecia zasilajacego
LCD_RS_PORT &= ~LCD_RS; // wyzerowanie linii RS
     27c:	58 98       	cbi	0x0b, 0	; 11
LCD_E_PORT &= ~LCD_E;  // wyzerowanie linii E
     27e:	45 98       	cbi	0x08, 5	; 8
     280:	c3 e0       	ldi	r28, 0x03	; 3

for(i = 0; i < 3; i++) // trzykrotne powtórzenie bloku instrukcji
  {
  LCD_E_PORT |= LCD_E; //  E = 1
     282:	45 9a       	sbi	0x08, 5	; 8
  _LCD_OutNibble(0x03); // tryb 8-bitowy
     284:	83 e0       	ldi	r24, 0x03	; 3
     286:	0e 94 d7 00 	call	0x1ae	; 0x1ae <_LCD_OutNibble>
  LCD_E_PORT &= ~LCD_E; // E = 0
     28a:	45 98       	cbi	0x08, 5	; 8
     28c:	87 e8       	ldi	r24, 0x87	; 135
     28e:	93 e1       	ldi	r25, 0x13	; 19
     290:	01 97       	sbiw	r24, 0x01	; 1
     292:	f1 f7       	brne	.-4      	; 0x290 <LCD_Initalize+0x2e>
     294:	00 c0       	rjmp	.+0      	; 0x296 <LCD_Initalize+0x34>
     296:	00 00       	nop
     298:	c1 50       	subi	r28, 0x01	; 1
LCD_RS_DIR 	|= LCD_RS;  //
_delay_ms(15); // oczekiwanie na ustalibizowanie siê napiecia zasilajacego
LCD_RS_PORT &= ~LCD_RS; // wyzerowanie linii RS
LCD_E_PORT &= ~LCD_E;  // wyzerowanie linii E

for(i = 0; i < 3; i++) // trzykrotne powtórzenie bloku instrukcji
     29a:	99 f7       	brne	.-26     	; 0x282 <LCD_Initalize+0x20>
  _LCD_OutNibble(0x03); // tryb 8-bitowy
  LCD_E_PORT &= ~LCD_E; // E = 0
  _delay_ms(5); // czekaj 5ms
  }

LCD_E_PORT |= LCD_E; // E = 1
     29c:	45 9a       	sbi	0x08, 5	; 8
_LCD_OutNibble(0x02); // tryb 4-bitowy
     29e:	82 e0       	ldi	r24, 0x02	; 2
     2a0:	0e 94 d7 00 	call	0x1ae	; 0x1ae <_LCD_OutNibble>
LCD_E_PORT &= ~LCD_E; // E = 0
     2a4:	45 98       	cbi	0x08, 5	; 8
     2a6:	87 ee       	ldi	r24, 0xE7	; 231
     2a8:	93 e0       	ldi	r25, 0x03	; 3
     2aa:	01 97       	sbiw	r24, 0x01	; 1
     2ac:	f1 f7       	brne	.-4      	; 0x2aa <LCD_Initalize+0x48>
     2ae:	00 c0       	rjmp	.+0      	; 0x2b0 <LCD_Initalize+0x4e>
     2b0:	00 00       	nop

_delay_ms(1); // czekaj 1ms 
LCD_WriteCommand(HD44780_FUNCTION_SET | HD44780_FONT5x7 | HD44780_TWO_LINE | HD44780_4_BIT); // interfejs 4-bity, 2-linie, znak 5x7
     2b2:	88 e2       	ldi	r24, 0x28	; 40
     2b4:	0e 94 fe 00 	call	0x1fc	; 0x1fc <LCD_WriteCommand>
LCD_WriteCommand(HD44780_DISPLAY_ONOFF | HD44780_DISPLAY_OFF); // wy³¹czenie wyswietlacza
     2b8:	88 e0       	ldi	r24, 0x08	; 8
     2ba:	0e 94 fe 00 	call	0x1fc	; 0x1fc <LCD_WriteCommand>
LCD_WriteCommand(HD44780_CLEAR); // czyszczenie zawartosæi pamieci DDRAM
     2be:	81 e0       	ldi	r24, 0x01	; 1
     2c0:	0e 94 fe 00 	call	0x1fc	; 0x1fc <LCD_WriteCommand>
     2c4:	8f ec       	ldi	r24, 0xCF	; 207
     2c6:	97 e0       	ldi	r25, 0x07	; 7
     2c8:	01 97       	sbiw	r24, 0x01	; 1
     2ca:	f1 f7       	brne	.-4      	; 0x2c8 <LCD_Initalize+0x66>
     2cc:	00 c0       	rjmp	.+0      	; 0x2ce <LCD_Initalize+0x6c>
     2ce:	00 00       	nop
_delay_ms(2);
LCD_WriteCommand(HD44780_ENTRY_MODE | HD44780_EM_SHIFT_CURSOR | HD44780_EM_INCREMENT);// inkrementaja adresu i przesuwanie kursora
     2d0:	86 e0       	ldi	r24, 0x06	; 6
     2d2:	0e 94 fe 00 	call	0x1fc	; 0x1fc <LCD_WriteCommand>
LCD_WriteCommand(HD44780_DISPLAY_ONOFF | HD44780_DISPLAY_ON | HD44780_CURSOR_OFF | HD44780_CURSOR_NOBLINK); // w³¹cz LCD, bez kursora i mrugania
     2d6:	8c e0       	ldi	r24, 0x0C	; 12
     2d8:	0e 94 fe 00 	call	0x1fc	; 0x1fc <LCD_WriteCommand>
}
     2dc:	cf 91       	pop	r28
     2de:	08 95       	ret

000002e0 <Inicjalizacja_SPI>:


 void Inicjalizacja_SPI(void)
 {
	 //	ustawienie wyjsc
	 SPI_DIR = (1<<SPI_MOSI) | (1<<SPI_SCK) |(0<<SPI_MISO) | (1<<SPI_SS);
     2e0:	8c e2       	ldi	r24, 0x2C	; 44
     2e2:	84 b9       	out	0x04, r24	; 4
	 SPI_PORT = (1<<SPI_MOSI) | (1<<SPI_SCK) |(0<<SPI_MISO) | (1<<SPI_SS);
     2e4:	85 b9       	out	0x05, r24	; 5
	 // w³aczenie SPI; tryb MASTER; MODE 0; prescaler segara procesora 16(SPR0=1) lub 4(SPCR0=0)
	 SPCR = (1<<SPE)|(1<<MSTR)|(0<<SPR0);
     2e6:	80 e5       	ldi	r24, 0x50	; 80
     2e8:	8c bd       	out	0x2c, r24	; 44
     2ea:	08 95       	ret

000002ec <Wyslij_bajt_SPI>:


 uint8_t Wyslij_bajt_SPI(uint8_t bajt)
 {
	 //	Za³adowanie bufora
	 SPDR = bajt;
     2ec:	8e bd       	out	0x2e, r24	; 46
	 // czekanie na koniec transmisji
	 while(!(SPSR & (1<<SPIF))){}
     2ee:	0d b4       	in	r0, 0x2d	; 45
     2f0:	07 fe       	sbrs	r0, 7
     2f2:	fd cf       	rjmp	.-6      	; 0x2ee <Wyslij_bajt_SPI+0x2>
	 //	odczyt bufora
	// _delay_us(200);
	 return SPDR;
     2f4:	8e b5       	in	r24, 0x2e	; 46
 }
     2f6:	08 95       	ret

000002f8 <Inicjalizacja_SD>:

 uint16_t Inicjalizacja_SD(void)
 {
     2f8:	cf 93       	push	r28
     2fa:	df 93       	push	r29
     2fc:	da e0       	ldi	r29, 0x0A	; 10
     2fe:	cd 2f       	mov	r28, r29
	uint8_t i;
	while(1)
	{
		for (i=0;i<10;i++)
		{
			Wyslij_bajt_SPI(0xFF);
     300:	8f ef       	ldi	r24, 0xFF	; 255
     302:	0e 94 76 01 	call	0x2ec	; 0x2ec <Wyslij_bajt_SPI>
     306:	c1 50       	subi	r28, 0x01	; 1
 uint16_t Inicjalizacja_SD(void)
 {
	uint8_t i;
	while(1)
	{
		for (i=0;i<10;i++)
     308:	d9 f7       	brne	.-10     	; 0x300 <Inicjalizacja_SD+0x8>
//	funkcje

void Inicjalizacja_SPI(void);
uint8_t Wyslij_bajt_SPI(uint8_t bajt);
uint16_t Inicjalizacja_SD(void);
inline void sdss(void){asm("cbi 0x05,2");}
     30a:	2a 98       	cbi	0x05, 2	; 5
		}

		
		sdss();
		//	wys³anie komendy resetu
		Wyslij_bajt_SPI(SD_GO_IDLE_STATE);
     30c:	80 e4       	ldi	r24, 0x40	; 64
     30e:	0e 94 76 01 	call	0x2ec	; 0x2ec <Wyslij_bajt_SPI>
		Wyslij_bajt_SPI(0);
     312:	80 e0       	ldi	r24, 0x00	; 0
     314:	0e 94 76 01 	call	0x2ec	; 0x2ec <Wyslij_bajt_SPI>
		Wyslij_bajt_SPI(0);
     318:	80 e0       	ldi	r24, 0x00	; 0
     31a:	0e 94 76 01 	call	0x2ec	; 0x2ec <Wyslij_bajt_SPI>
		Wyslij_bajt_SPI(0);
     31e:	80 e0       	ldi	r24, 0x00	; 0
     320:	0e 94 76 01 	call	0x2ec	; 0x2ec <Wyslij_bajt_SPI>
		Wyslij_bajt_SPI(0);
     324:	80 e0       	ldi	r24, 0x00	; 0
     326:	0e 94 76 01 	call	0x2ec	; 0x2ec <Wyslij_bajt_SPI>
		i=Wyslij_bajt_SPI(0x95);
     32a:	85 e9       	ldi	r24, 0x95	; 149
     32c:	0e 94 76 01 	call	0x2ec	; 0x2ec <Wyslij_bajt_SPI>

		//	pusta pêtla czekania na odpowiedŸ
		while(i==0xff)
     330:	8f 3f       	cpi	r24, 0xFF	; 255
     332:	29 f4       	brne	.+10     	; 0x33e <Inicjalizacja_SD+0x46>
		{
			
			i=Wyslij_bajt_SPI(0xFF);
     334:	8f ef       	ldi	r24, 0xFF	; 255
     336:	0e 94 76 01 	call	0x2ec	; 0x2ec <Wyslij_bajt_SPI>
		Wyslij_bajt_SPI(0);
		Wyslij_bajt_SPI(0);
		i=Wyslij_bajt_SPI(0x95);

		//	pusta pêtla czekania na odpowiedŸ
		while(i==0xff)
     33a:	8f 3f       	cpi	r24, 0xFF	; 255
     33c:	d9 f3       	breq	.-10     	; 0x334 <Inicjalizacja_SD+0x3c>
inline void sdus(void){asm("sbi 0x05,2");}
     33e:	2a 9a       	sbi	0x05, 2	; 5
		}

		sdus();
		
		//	sprawdzenie odpowiedzi karty
		if (i==0x01)
     340:	81 30       	cpi	r24, 0x01	; 1
     342:	e9 f6       	brne	.-70     	; 0x2fe <Inicjalizacja_SD+0x6>
			break;
		}
	}

	
	Wyslij_bajt_SPI(0xFF);
     344:	8f ef       	ldi	r24, 0xFF	; 255
     346:	0e 94 76 01 	call	0x2ec	; 0x2ec <Wyslij_bajt_SPI>
//	funkcje

void Inicjalizacja_SPI(void);
uint8_t Wyslij_bajt_SPI(uint8_t bajt);
uint16_t Inicjalizacja_SD(void);
inline void sdss(void){asm("cbi 0x05,2");}
     34a:	2a 98       	cbi	0x05, 2	; 5
	//i=0x00;
	while(i!=0x00)
	{
		sdss();
		// proba inicjalizacji sd
		Wyslij_bajt_SPI(SD_APP_CMD);
     34c:	87 e7       	ldi	r24, 0x77	; 119
     34e:	0e 94 76 01 	call	0x2ec	; 0x2ec <Wyslij_bajt_SPI>
		Wyslij_bajt_SPI(0);
     352:	80 e0       	ldi	r24, 0x00	; 0
     354:	0e 94 76 01 	call	0x2ec	; 0x2ec <Wyslij_bajt_SPI>
		Wyslij_bajt_SPI(0);
     358:	80 e0       	ldi	r24, 0x00	; 0
     35a:	0e 94 76 01 	call	0x2ec	; 0x2ec <Wyslij_bajt_SPI>
		Wyslij_bajt_SPI(0);
     35e:	80 e0       	ldi	r24, 0x00	; 0
     360:	0e 94 76 01 	call	0x2ec	; 0x2ec <Wyslij_bajt_SPI>
		Wyslij_bajt_SPI(0);
     364:	80 e0       	ldi	r24, 0x00	; 0
     366:	0e 94 76 01 	call	0x2ec	; 0x2ec <Wyslij_bajt_SPI>
		i=Wyslij_bajt_SPI(0xFF);
     36a:	8f ef       	ldi	r24, 0xFF	; 255
     36c:	0e 94 76 01 	call	0x2ec	; 0x2ec <Wyslij_bajt_SPI>
     370:	c8 2f       	mov	r28, r24

		//	pusta pêtla czekania na odpowiedŸ
		while(i==0xFF)
     372:	8f 3f       	cpi	r24, 0xFF	; 255
     374:	31 f4       	brne	.+12     	; 0x382 <Inicjalizacja_SD+0x8a>
		{
			i=Wyslij_bajt_SPI(0xFF);
     376:	8f ef       	ldi	r24, 0xFF	; 255
     378:	0e 94 76 01 	call	0x2ec	; 0x2ec <Wyslij_bajt_SPI>
     37c:	c8 2f       	mov	r28, r24
		Wyslij_bajt_SPI(0);
		Wyslij_bajt_SPI(0);
		i=Wyslij_bajt_SPI(0xFF);

		//	pusta pêtla czekania na odpowiedŸ
		while(i==0xFF)
     37e:	8f 3f       	cpi	r24, 0xFF	; 255
     380:	d1 f3       	breq	.-12     	; 0x376 <Inicjalizacja_SD+0x7e>
inline void sdus(void){asm("sbi 0x05,2");}
     382:	2a 9a       	sbi	0x05, 2	; 5
		{
			i=Wyslij_bajt_SPI(0xFF);
		}

		sdus();
		Wyslij_bajt_SPI(0xFF);
     384:	8f ef       	ldi	r24, 0xFF	; 255
     386:	0e 94 76 01 	call	0x2ec	; 0x2ec <Wyslij_bajt_SPI>

		
		//	sprawdzenie odpowiedzi karty
		//return (0x4200 +i);
		if ((i==0x05)|(i==0x04))
     38a:	c4 50       	subi	r28, 0x04	; 4
     38c:	c2 30       	cpi	r28, 0x02	; 2
     38e:	08 f4       	brcc	.+2      	; 0x392 <Inicjalizacja_SD+0x9a>
     390:	67 c0       	rjmp	.+206    	; 0x460 <Inicjalizacja_SD+0x168>
//	funkcje

void Inicjalizacja_SPI(void);
uint8_t Wyslij_bajt_SPI(uint8_t bajt);
uint16_t Inicjalizacja_SD(void);
inline void sdss(void){asm("cbi 0x05,2");}
     392:	2a 98       	cbi	0x05, 2	; 5
		}
		else
		{
			sdss();
			// proba inicjalizacji sd
			Wyslij_bajt_SPI(SD_INI_SDC);
     394:	89 e6       	ldi	r24, 0x69	; 105
     396:	0e 94 76 01 	call	0x2ec	; 0x2ec <Wyslij_bajt_SPI>
			Wyslij_bajt_SPI(0);
     39a:	80 e0       	ldi	r24, 0x00	; 0
     39c:	0e 94 76 01 	call	0x2ec	; 0x2ec <Wyslij_bajt_SPI>
			Wyslij_bajt_SPI(0);
     3a0:	80 e0       	ldi	r24, 0x00	; 0
     3a2:	0e 94 76 01 	call	0x2ec	; 0x2ec <Wyslij_bajt_SPI>
			Wyslij_bajt_SPI(0);
     3a6:	80 e0       	ldi	r24, 0x00	; 0
     3a8:	0e 94 76 01 	call	0x2ec	; 0x2ec <Wyslij_bajt_SPI>
			Wyslij_bajt_SPI(0);
     3ac:	80 e0       	ldi	r24, 0x00	; 0
     3ae:	0e 94 76 01 	call	0x2ec	; 0x2ec <Wyslij_bajt_SPI>
			i=Wyslij_bajt_SPI(0xFF);
     3b2:	8f ef       	ldi	r24, 0xFF	; 255
     3b4:	0e 94 76 01 	call	0x2ec	; 0x2ec <Wyslij_bajt_SPI>
     3b8:	c8 2f       	mov	r28, r24

			//	pusta pêtla czekania na odpowiedŸ
			while(i==0xFF)
     3ba:	8f 3f       	cpi	r24, 0xFF	; 255
     3bc:	31 f4       	brne	.+12     	; 0x3ca <Inicjalizacja_SD+0xd2>
			{
				i=Wyslij_bajt_SPI(0xFF);
     3be:	8f ef       	ldi	r24, 0xFF	; 255
     3c0:	0e 94 76 01 	call	0x2ec	; 0x2ec <Wyslij_bajt_SPI>
     3c4:	c8 2f       	mov	r28, r24
			Wyslij_bajt_SPI(0);
			Wyslij_bajt_SPI(0);
			i=Wyslij_bajt_SPI(0xFF);

			//	pusta pêtla czekania na odpowiedŸ
			while(i==0xFF)
     3c6:	8f 3f       	cpi	r24, 0xFF	; 255
     3c8:	d1 f3       	breq	.-12     	; 0x3be <Inicjalizacja_SD+0xc6>
inline void sdus(void){asm("sbi 0x05,2");}
     3ca:	2a 9a       	sbi	0x05, 2	; 5
			{
				i=Wyslij_bajt_SPI(0xFF);
			}
			
			sdus();
			Wyslij_bajt_SPI(0xFF);
     3cc:	8f ef       	ldi	r24, 0xFF	; 255
     3ce:	0e 94 76 01 	call	0x2ec	; 0x2ec <Wyslij_bajt_SPI>
	}

	
	Wyslij_bajt_SPI(0xFF);
	//i=0x00;
	while(i!=0x00)
     3d2:	c1 11       	cpse	r28, r1
     3d4:	ba cf       	rjmp	.-140    	; 0x34a <Inicjalizacja_SD+0x52>
     3d6:	44 c0       	rjmp	.+136    	; 0x460 <Inicjalizacja_SD+0x168>
//	funkcje

void Inicjalizacja_SPI(void);
uint8_t Wyslij_bajt_SPI(uint8_t bajt);
uint16_t Inicjalizacja_SD(void);
inline void sdss(void){asm("cbi 0x05,2");}
     3d8:	2a 98       	cbi	0x05, 2	; 5
	i=0xff;
	while(i!=0x00)
	{
		sdss();
		// proba inicjalizacji sd
		Wyslij_bajt_SPI(SD_SEND_OP_COND);
     3da:	81 e4       	ldi	r24, 0x41	; 65
     3dc:	0e 94 76 01 	call	0x2ec	; 0x2ec <Wyslij_bajt_SPI>
		Wyslij_bajt_SPI(0);
     3e0:	80 e0       	ldi	r24, 0x00	; 0
     3e2:	0e 94 76 01 	call	0x2ec	; 0x2ec <Wyslij_bajt_SPI>
		Wyslij_bajt_SPI(0);
     3e6:	80 e0       	ldi	r24, 0x00	; 0
     3e8:	0e 94 76 01 	call	0x2ec	; 0x2ec <Wyslij_bajt_SPI>
		Wyslij_bajt_SPI(0);
     3ec:	80 e0       	ldi	r24, 0x00	; 0
     3ee:	0e 94 76 01 	call	0x2ec	; 0x2ec <Wyslij_bajt_SPI>
		Wyslij_bajt_SPI(0);
     3f2:	80 e0       	ldi	r24, 0x00	; 0
     3f4:	0e 94 76 01 	call	0x2ec	; 0x2ec <Wyslij_bajt_SPI>
		Wyslij_bajt_SPI(0xFF);
     3f8:	8f ef       	ldi	r24, 0xFF	; 255
     3fa:	0e 94 76 01 	call	0x2ec	; 0x2ec <Wyslij_bajt_SPI>

		//	pusta pêtla czekania na odpowiedŸ
		while(i==0xFF)
     3fe:	cf 3f       	cpi	r28, 0xFF	; 255
     400:	31 f4       	brne	.+12     	; 0x40e <Inicjalizacja_SD+0x116>
		{
			i=Wyslij_bajt_SPI(0xFF);
     402:	8f ef       	ldi	r24, 0xFF	; 255
     404:	0e 94 76 01 	call	0x2ec	; 0x2ec <Wyslij_bajt_SPI>
     408:	c8 2f       	mov	r28, r24
		Wyslij_bajt_SPI(0);
		Wyslij_bajt_SPI(0);
		Wyslij_bajt_SPI(0xFF);

		//	pusta pêtla czekania na odpowiedŸ
		while(i==0xFF)
     40a:	8f 3f       	cpi	r24, 0xFF	; 255
     40c:	d1 f3       	breq	.-12     	; 0x402 <Inicjalizacja_SD+0x10a>
inline void sdus(void){asm("sbi 0x05,2");}
     40e:	2a 9a       	sbi	0x05, 2	; 5
		{
			i=Wyslij_bajt_SPI(0xFF);
		}
		sdus();

		Wyslij_bajt_SPI(0xFF);
     410:	8f ef       	ldi	r24, 0xFF	; 255
     412:	0e 94 76 01 	call	0x2ec	; 0x2ec <Wyslij_bajt_SPI>
	}
	

	// inicjalizacja karty MMC
	i=0xff;
	while(i!=0x00)
     416:	c1 11       	cpse	r28, r1
     418:	df cf       	rjmp	.-66     	; 0x3d8 <Inicjalizacja_SD+0xe0>
     41a:	cf ef       	ldi	r28, 0xFF	; 255
//	funkcje

void Inicjalizacja_SPI(void);
uint8_t Wyslij_bajt_SPI(uint8_t bajt);
uint16_t Inicjalizacja_SD(void);
inline void sdss(void){asm("cbi 0x05,2");}
     41c:	2a 98       	cbi	0x05, 2	; 5
	i=0xff;
	while(i!=0x00)
	{
		sdss();
		// proba inicjalizacji sd
		Wyslij_bajt_SPI(SD_SET_BLOCKLEN);
     41e:	80 e5       	ldi	r24, 0x50	; 80
     420:	0e 94 76 01 	call	0x2ec	; 0x2ec <Wyslij_bajt_SPI>
		Wyslij_bajt_SPI(0);
     424:	80 e0       	ldi	r24, 0x00	; 0
     426:	0e 94 76 01 	call	0x2ec	; 0x2ec <Wyslij_bajt_SPI>
		Wyslij_bajt_SPI(0);
     42a:	80 e0       	ldi	r24, 0x00	; 0
     42c:	0e 94 76 01 	call	0x2ec	; 0x2ec <Wyslij_bajt_SPI>
		Wyslij_bajt_SPI(0x02);
     430:	82 e0       	ldi	r24, 0x02	; 2
     432:	0e 94 76 01 	call	0x2ec	; 0x2ec <Wyslij_bajt_SPI>
		Wyslij_bajt_SPI(0);
     436:	80 e0       	ldi	r24, 0x00	; 0
     438:	0e 94 76 01 	call	0x2ec	; 0x2ec <Wyslij_bajt_SPI>
		Wyslij_bajt_SPI(0xFF);
     43c:	8f ef       	ldi	r24, 0xFF	; 255
     43e:	0e 94 76 01 	call	0x2ec	; 0x2ec <Wyslij_bajt_SPI>

		//	pusta pêtla czekania na odpowiedŸ
		while(i==0xFF)
     442:	cf 3f       	cpi	r28, 0xFF	; 255
     444:	31 f4       	brne	.+12     	; 0x452 <Inicjalizacja_SD+0x15a>
		{
			i=Wyslij_bajt_SPI(0xFF);
     446:	8f ef       	ldi	r24, 0xFF	; 255
     448:	0e 94 76 01 	call	0x2ec	; 0x2ec <Wyslij_bajt_SPI>
     44c:	c8 2f       	mov	r28, r24
		Wyslij_bajt_SPI(0x02);
		Wyslij_bajt_SPI(0);
		Wyslij_bajt_SPI(0xFF);

		//	pusta pêtla czekania na odpowiedŸ
		while(i==0xFF)
     44e:	8f 3f       	cpi	r24, 0xFF	; 255
     450:	d1 f3       	breq	.-12     	; 0x446 <Inicjalizacja_SD+0x14e>
inline void sdus(void){asm("sbi 0x05,2");}
     452:	2a 9a       	sbi	0x05, 2	; 5
		{
			i=Wyslij_bajt_SPI(0xFF);
		}
		sdus();

		Wyslij_bajt_SPI(0xFF);
     454:	8f ef       	ldi	r24, 0xFF	; 255
     456:	0e 94 76 01 	call	0x2ec	; 0x2ec <Wyslij_bajt_SPI>
		Wyslij_bajt_SPI(0xFF);
	}

	//return (0x4300 +i);
	i=0xff;
	while(i!=0x00)
     45a:	c1 11       	cpse	r28, r1
     45c:	df cf       	rjmp	.-66     	; 0x41c <Inicjalizacja_SD+0x124>
     45e:	02 c0       	rjmp	.+4      	; 0x464 <Inicjalizacja_SD+0x16c>
	// _delay_us(200);
	 return SPDR;
 }

 uint16_t Inicjalizacja_SD(void)
 {
     460:	cf ef       	ldi	r28, 0xFF	; 255
     462:	ba cf       	rjmp	.-140    	; 0x3d8 <Inicjalizacja_SD+0xe0>

		Wyslij_bajt_SPI(0xFF);
	}
	
	return (0x4400 +i);
 }
     464:	80 e0       	ldi	r24, 0x00	; 0
     466:	94 e4       	ldi	r25, 0x44	; 68
     468:	df 91       	pop	r29
     46a:	cf 91       	pop	r28
     46c:	08 95       	ret

0000046e <Odczyt_danych_z_SD>:


 uint16_t Odczyt_danych_z_SD(uint8_t* adres_odczytu, char* adres_tablicy)
 {	
     46e:	ef 92       	push	r14
     470:	ff 92       	push	r15
     472:	0f 93       	push	r16
     474:	1f 93       	push	r17
     476:	cf 93       	push	r28
     478:	df 93       	push	r29
     47a:	7c 01       	movw	r14, r24
     47c:	8b 01       	movw	r16, r22
	uint16_t l;
	uint8_t i;
	Wyslij_bajt_SPI(0xFF);
     47e:	8f ef       	ldi	r24, 0xFF	; 255
     480:	0e 94 76 01 	call	0x2ec	; 0x2ec <Wyslij_bajt_SPI>
//	funkcje

void Inicjalizacja_SPI(void);
uint8_t Wyslij_bajt_SPI(uint8_t bajt);
uint16_t Inicjalizacja_SD(void);
inline void sdss(void){asm("cbi 0x05,2");}
     484:	2a 98       	cbi	0x05, 2	; 5
	sdss();
	Wyslij_bajt_SPI(SD_READ_SINGLE_BLOCK);
     486:	81 e5       	ldi	r24, 0x51	; 81
     488:	0e 94 76 01 	call	0x2ec	; 0x2ec <Wyslij_bajt_SPI>
     48c:	e7 01       	movw	r28, r14
     48e:	84 e0       	ldi	r24, 0x04	; 4
     490:	e8 0e       	add	r14, r24
     492:	f1 1c       	adc	r15, r1
	for(i=0;i<4;i++)
	{
		Wyslij_bajt_SPI(*(adres_odczytu+i));
     494:	89 91       	ld	r24, Y+
     496:	0e 94 76 01 	call	0x2ec	; 0x2ec <Wyslij_bajt_SPI>
	uint16_t l;
	uint8_t i;
	Wyslij_bajt_SPI(0xFF);
	sdss();
	Wyslij_bajt_SPI(SD_READ_SINGLE_BLOCK);
	for(i=0;i<4;i++)
     49a:	ce 15       	cp	r28, r14
     49c:	df 05       	cpc	r29, r15
     49e:	d1 f7       	brne	.-12     	; 0x494 <Odczyt_danych_z_SD+0x26>
	{
		Wyslij_bajt_SPI(*(adres_odczytu+i));
	}
	i = Wyslij_bajt_SPI(0xff);
     4a0:	8f ef       	ldi	r24, 0xFF	; 255
     4a2:	0e 94 76 01 	call	0x2ec	; 0x2ec <Wyslij_bajt_SPI>

	while (i==0xff)
     4a6:	8f 3f       	cpi	r24, 0xFF	; 255
     4a8:	29 f4       	brne	.+10     	; 0x4b4 <Odczyt_danych_z_SD+0x46>
	{	
		i = Wyslij_bajt_SPI(0xff);
     4aa:	8f ef       	ldi	r24, 0xFF	; 255
     4ac:	0e 94 76 01 	call	0x2ec	; 0x2ec <Wyslij_bajt_SPI>
	{
		Wyslij_bajt_SPI(*(adres_odczytu+i));
	}
	i = Wyslij_bajt_SPI(0xff);

	while (i==0xff)
     4b0:	8f 3f       	cpi	r24, 0xFF	; 255
     4b2:	d9 f3       	breq	.-10     	; 0x4aa <Odczyt_danych_z_SD+0x3c>
	{	
		i = Wyslij_bajt_SPI(0xff);
	}
	
	if (i!=0x00)
     4b4:	88 23       	and	r24, r24
     4b6:	19 f0       	breq	.+6      	; 0x4be <Odczyt_danych_z_SD+0x50>
	{
		return (0x6100 +i);	//	zwrucenie miejsca i kodu bledu
     4b8:	90 e0       	ldi	r25, 0x00	; 0
     4ba:	9f 59       	subi	r25, 0x9F	; 159
     4bc:	27 c0       	rjmp	.+78     	; 0x50c <Odczyt_danych_z_SD+0x9e>
	}
	i = Wyslij_bajt_SPI(0xff);
     4be:	8f ef       	ldi	r24, 0xFF	; 255
     4c0:	0e 94 76 01 	call	0x2ec	; 0x2ec <Wyslij_bajt_SPI>
	while (i==0xff)
     4c4:	8f 3f       	cpi	r24, 0xFF	; 255
     4c6:	e9 f4       	brne	.+58     	; 0x502 <Odczyt_danych_z_SD+0x94>
	{
		i = Wyslij_bajt_SPI(0xff);
     4c8:	8f ef       	ldi	r24, 0xFF	; 255
     4ca:	0e 94 76 01 	call	0x2ec	; 0x2ec <Wyslij_bajt_SPI>
	if (i!=0x00)
	{
		return (0x6100 +i);	//	zwrucenie miejsca i kodu bledu
	}
	i = Wyslij_bajt_SPI(0xff);
	while (i==0xff)
     4ce:	8f 3f       	cpi	r24, 0xFF	; 255
     4d0:	d9 f3       	breq	.-10     	; 0x4c8 <Odczyt_danych_z_SD+0x5a>
     4d2:	17 c0       	rjmp	.+46     	; 0x502 <Odczyt_danych_z_SD+0x94>
	}

	//	sprawdzenie pocz¹tkowego tokenu
	if (i!=0xfe)
	{
		return (0x6200 +i);	//	zwrucenie miejsca i kodu bledu
     4d4:	90 e0       	ldi	r25, 0x00	; 0
     4d6:	9e 59       	subi	r25, 0x9E	; 158
     4d8:	19 c0       	rjmp	.+50     	; 0x50c <Odczyt_danych_z_SD+0x9e>
	}
	for(l=0;l<512;l++)
	{
		(* (adres_tablicy+l)) =Wyslij_bajt_SPI(0xff);
     4da:	8f ef       	ldi	r24, 0xFF	; 255
     4dc:	0e 94 76 01 	call	0x2ec	; 0x2ec <Wyslij_bajt_SPI>
     4e0:	89 93       	st	Y+, r24
	//	sprawdzenie pocz¹tkowego tokenu
	if (i!=0xfe)
	{
		return (0x6200 +i);	//	zwrucenie miejsca i kodu bledu
	}
	for(l=0;l<512;l++)
     4e2:	c0 17       	cp	r28, r16
     4e4:	d1 07       	cpc	r29, r17
     4e6:	c9 f7       	brne	.-14     	; 0x4da <Odczyt_danych_z_SD+0x6c>
	{
		(* (adres_tablicy+l)) =Wyslij_bajt_SPI(0xff);
	}
	Wyslij_bajt_SPI(0xff);
     4e8:	8f ef       	ldi	r24, 0xFF	; 255
     4ea:	0e 94 76 01 	call	0x2ec	; 0x2ec <Wyslij_bajt_SPI>
	Wyslij_bajt_SPI(0xff);
     4ee:	8f ef       	ldi	r24, 0xFF	; 255
     4f0:	0e 94 76 01 	call	0x2ec	; 0x2ec <Wyslij_bajt_SPI>
inline void sdus(void){asm("sbi 0x05,2");}
     4f4:	2a 9a       	sbi	0x05, 2	; 5
	sdus();
	Wyslij_bajt_SPI(0xff);
     4f6:	8f ef       	ldi	r24, 0xFF	; 255
     4f8:	0e 94 76 01 	call	0x2ec	; 0x2ec <Wyslij_bajt_SPI>
	return	(0x6300 );	//	koniec odczytu
     4fc:	80 e0       	ldi	r24, 0x00	; 0
     4fe:	93 e6       	ldi	r25, 0x63	; 99
     500:	05 c0       	rjmp	.+10     	; 0x50c <Odczyt_danych_z_SD+0x9e>
	{
		i = Wyslij_bajt_SPI(0xff);
	}

	//	sprawdzenie pocz¹tkowego tokenu
	if (i!=0xfe)
     502:	8e 3f       	cpi	r24, 0xFE	; 254
     504:	39 f7       	brne	.-50     	; 0x4d4 <Odczyt_danych_z_SD+0x66>
     506:	e8 01       	movw	r28, r16
     508:	1e 5f       	subi	r17, 0xFE	; 254
     50a:	e7 cf       	rjmp	.-50     	; 0x4da <Odczyt_danych_z_SD+0x6c>
	Wyslij_bajt_SPI(0xff);
	Wyslij_bajt_SPI(0xff);
	sdus();
	Wyslij_bajt_SPI(0xff);
	return	(0x6300 );	//	koniec odczytu
     50c:	df 91       	pop	r29
     50e:	cf 91       	pop	r28
     510:	1f 91       	pop	r17
     512:	0f 91       	pop	r16
     514:	ff 90       	pop	r15
     516:	ef 90       	pop	r14
     518:	08 95       	ret

0000051a <Zakoncz>:
uint8_t Zakoncz(void)
{
	while(1)
	{	
		
		LCD_Clear();                                         
     51a:	0e 94 1d 01 	call	0x23a	; 0x23a <LCD_Clear>
		LCD_Home();                                          
     51e:	0e 94 27 01 	call	0x24e	; 0x24e <LCD_Home>
		LCD_WriteText("**Koniec pracy**          ");
     522:	80 e0       	ldi	r24, 0x00	; 0
     524:	91 e0       	ldi	r25, 0x01	; 1
     526:	0e 94 06 01 	call	0x20c	; 0x20c <LCD_WriteText>
		LCD_GoTo(M_DRUGA_LINIA_P1); 
     52a:	61 e0       	ldi	r22, 0x01	; 1
     52c:	80 e0       	ldi	r24, 0x00	; 0
     52e:	0e 94 15 01 	call	0x22a	; 0x22a <LCD_GoTo>
		LCD_WriteText("1.Wylacz zaplon pojazadu. ");
     532:	8b e1       	ldi	r24, 0x1B	; 27
     534:	91 e0       	ldi	r25, 0x01	; 1
     536:	0e 94 06 01 	call	0x20c	; 0x20c <LCD_WriteText>
     53a:	2f ef       	ldi	r18, 0xFF	; 255
     53c:	89 e6       	ldi	r24, 0x69	; 105
     53e:	98 e1       	ldi	r25, 0x18	; 24
     540:	21 50       	subi	r18, 0x01	; 1
     542:	80 40       	sbci	r24, 0x00	; 0
     544:	90 40       	sbci	r25, 0x00	; 0
     546:	e1 f7       	brne	.-8      	; 0x540 <Zakoncz+0x26>
     548:	00 c0       	rjmp	.+0      	; 0x54a <Zakoncz+0x30>
     54a:	00 00       	nop
		_delay_ms(2000);
		
		for(i=0;i<10;i++)
     54c:	10 92 46 06 	sts	0x0646, r1
		{
			LCD_WriteCommand((HD44780_DISPLAY_CURSOR_SHIFT | HD44780_SHIFT_DISPLAY | HD44780_SHIFT_LEFT));
     550:	88 e1       	ldi	r24, 0x18	; 24
     552:	0e 94 fe 00 	call	0x1fc	; 0x1fc <LCD_WriteCommand>
     556:	2f ef       	ldi	r18, 0xFF	; 255
     558:	83 ec       	ldi	r24, 0xC3	; 195
     55a:	99 e0       	ldi	r25, 0x09	; 9
     55c:	21 50       	subi	r18, 0x01	; 1
     55e:	80 40       	sbci	r24, 0x00	; 0
     560:	90 40       	sbci	r25, 0x00	; 0
     562:	e1 f7       	brne	.-8      	; 0x55c <Zakoncz+0x42>
     564:	00 c0       	rjmp	.+0      	; 0x566 <Zakoncz+0x4c>
     566:	00 00       	nop
		LCD_WriteText("**Koniec pracy**          ");
		LCD_GoTo(M_DRUGA_LINIA_P1); 
		LCD_WriteText("1.Wylacz zaplon pojazadu. ");
		_delay_ms(2000);
		
		for(i=0;i<10;i++)
     568:	80 91 46 06 	lds	r24, 0x0646
     56c:	8f 5f       	subi	r24, 0xFF	; 255
     56e:	80 93 46 06 	sts	0x0646, r24
     572:	8a 30       	cpi	r24, 0x0A	; 10
     574:	68 f3       	brcs	.-38     	; 0x550 <Zakoncz+0x36>
     576:	14 c0       	rjmp	.+40     	; 0x5a0 <Zakoncz+0x86>
		LCD_WriteText("3. Odlacz przewody.       ");
		_delay_ms(2000);

		for(i=0;i<10;i++)
		{
			LCD_WriteCommand(HD44780_DISPLAY_CURSOR_SHIFT | HD44780_SHIFT_DISPLAY | HD44780_SHIFT_LEFT);
     578:	88 e1       	ldi	r24, 0x18	; 24
     57a:	0e 94 fe 00 	call	0x1fc	; 0x1fc <LCD_WriteCommand>
     57e:	2f ef       	ldi	r18, 0xFF	; 255
     580:	83 ec       	ldi	r24, 0xC3	; 195
     582:	99 e0       	ldi	r25, 0x09	; 9
     584:	21 50       	subi	r18, 0x01	; 1
     586:	80 40       	sbci	r24, 0x00	; 0
     588:	90 40       	sbci	r25, 0x00	; 0
     58a:	e1 f7       	brne	.-8      	; 0x584 <Zakoncz+0x6a>
     58c:	00 c0       	rjmp	.+0      	; 0x58e <Zakoncz+0x74>
     58e:	00 00       	nop
		LCD_WriteText("2. Wylacz urzadzenie.     ");
		LCD_GoTo(M_DRUGA_LINIA_P1); 
		LCD_WriteText("3. Odlacz przewody.       ");
		_delay_ms(2000);

		for(i=0;i<10;i++)
     590:	80 91 46 06 	lds	r24, 0x0646
     594:	8f 5f       	subi	r24, 0xFF	; 255
     596:	80 93 46 06 	sts	0x0646, r24
     59a:	8a 30       	cpi	r24, 0x0A	; 10
     59c:	68 f3       	brcs	.-38     	; 0x578 <Zakoncz+0x5e>
     59e:	bd cf       	rjmp	.-134    	; 0x51a <Zakoncz>
		{
			LCD_WriteCommand((HD44780_DISPLAY_CURSOR_SHIFT | HD44780_SHIFT_DISPLAY | HD44780_SHIFT_LEFT));
			_delay_ms(800);
		}
		
		LCD_Clear();                                                   
     5a0:	0e 94 1d 01 	call	0x23a	; 0x23a <LCD_Clear>
		LCD_Home();                                          
     5a4:	0e 94 27 01 	call	0x24e	; 0x24e <LCD_Home>
		LCD_WriteText("2. Wylacz urzadzenie.     ");
     5a8:	86 e3       	ldi	r24, 0x36	; 54
     5aa:	91 e0       	ldi	r25, 0x01	; 1
     5ac:	0e 94 06 01 	call	0x20c	; 0x20c <LCD_WriteText>
		LCD_GoTo(M_DRUGA_LINIA_P1); 
     5b0:	61 e0       	ldi	r22, 0x01	; 1
     5b2:	80 e0       	ldi	r24, 0x00	; 0
     5b4:	0e 94 15 01 	call	0x22a	; 0x22a <LCD_GoTo>
		LCD_WriteText("3. Odlacz przewody.       ");
     5b8:	81 e5       	ldi	r24, 0x51	; 81
     5ba:	91 e0       	ldi	r25, 0x01	; 1
     5bc:	0e 94 06 01 	call	0x20c	; 0x20c <LCD_WriteText>
     5c0:	2f ef       	ldi	r18, 0xFF	; 255
     5c2:	89 e6       	ldi	r24, 0x69	; 105
     5c4:	98 e1       	ldi	r25, 0x18	; 24
     5c6:	21 50       	subi	r18, 0x01	; 1
     5c8:	80 40       	sbci	r24, 0x00	; 0
     5ca:	90 40       	sbci	r25, 0x00	; 0
     5cc:	e1 f7       	brne	.-8      	; 0x5c6 <Zakoncz+0xac>
     5ce:	00 c0       	rjmp	.+0      	; 0x5d0 <Zakoncz+0xb6>
     5d0:	00 00       	nop
		_delay_ms(2000);

		for(i=0;i<10;i++)
     5d2:	10 92 46 06 	sts	0x0646, r1
     5d6:	d0 cf       	rjmp	.-96     	; 0x578 <Zakoncz+0x5e>

000005d8 <Wybor_funkcji>:

//	funkcja wyboru funkcji
uint8_t Wybor_funkcji(void)
{

	licznik = 0;                                            //	ustawienie wstepnej wartosci licznika
     5d8:	10 92 41 04 	sts	0x0441, r1
	LCD_Clear();                                            //	Czyszczenie Ekranu
     5dc:	0e 94 1d 01 	call	0x23a	; 0x23a <LCD_Clear>
	LCD_Home();												//	powrot karetki na poczatek ekranu
     5e0:	0e 94 27 01 	call	0x24e	; 0x24e <LCD_Home>
	LCD_WriteText("Wybierz funkcje ");                      //	wyœwietlanie pierwszego wiersza
     5e4:	8c e6       	ldi	r24, 0x6C	; 108
     5e6:	91 e0       	ldi	r25, 0x01	; 1
     5e8:	0e 94 06 01 	call	0x20c	; 0x20c <LCD_WriteText>

	while(1)	//	du¿a petla z wyswietlaniem
	{
		
		LCD_GoTo(M_DRUGA_LINIA_P1);								// przejscie do 2 lini
     5ec:	61 e0       	ldi	r22, 0x01	; 1
     5ee:	80 e0       	ldi	r24, 0x00	; 0
     5f0:	0e 94 15 01 	call	0x22a	; 0x22a <LCD_GoTo>
		switch (licznik)
     5f4:	80 91 41 04 	lds	r24, 0x0441
     5f8:	81 30       	cpi	r24, 0x01	; 1
     5fa:	59 f0       	breq	.+22     	; 0x612 <Wybor_funkcji+0x3a>
     5fc:	28 f0       	brcs	.+10     	; 0x608 <Wybor_funkcji+0x30>
     5fe:	82 30       	cpi	r24, 0x02	; 2
     600:	69 f0       	breq	.+26     	; 0x61c <Wybor_funkcji+0x44>
     602:	83 30       	cpi	r24, 0x03	; 3
     604:	81 f0       	breq	.+32     	; 0x626 <Wybor_funkcji+0x4e>
     606:	14 c0       	rjmp	.+40     	; 0x630 <Wybor_funkcji+0x58>
		{
			case 0:
				LCD_WriteText("Odczyt kodow    ");                      // wyœwietlanie drugiego wiersza
     608:	8d e7       	ldi	r24, 0x7D	; 125
     60a:	91 e0       	ldi	r25, 0x01	; 1
     60c:	0e 94 06 01 	call	0x20c	; 0x20c <LCD_WriteText>
				break;
     610:	22 c0       	rjmp	.+68     	; 0x656 <Wybor_funkcji+0x7e>
			
			case 1:
				LCD_WriteText("Przeglad kodow ");                      // wyœwietlanie drugiego wiersza
     612:	8e e8       	ldi	r24, 0x8E	; 142
     614:	91 e0       	ldi	r25, 0x01	; 1
     616:	0e 94 06 01 	call	0x20c	; 0x20c <LCD_WriteText>
				break;
     61a:	1d c0       	rjmp	.+58     	; 0x656 <Wybor_funkcji+0x7e>
			
			case 2:
				LCD_WriteText("Zmiana czasow   ");                      // wyœwietlanie drugiego wiersza
     61c:	8e e9       	ldi	r24, 0x9E	; 158
     61e:	91 e0       	ldi	r25, 0x01	; 1
     620:	0e 94 06 01 	call	0x20c	; 0x20c <LCD_WriteText>
				break;
     624:	18 c0       	rjmp	.+48     	; 0x656 <Wybor_funkcji+0x7e>
			
			case 3:
				LCD_WriteText("Zakoncz         ");                      // wyœwietlanie drugiego wiersza
     626:	8f ea       	ldi	r24, 0xAF	; 175
     628:	91 e0       	ldi	r25, 0x01	; 1
     62a:	0e 94 06 01 	call	0x20c	; 0x20c <LCD_WriteText>
				break;
     62e:	13 c0       	rjmp	.+38     	; 0x656 <Wybor_funkcji+0x7e>
			
			default:
				LCD_Clear();
     630:	0e 94 1d 01 	call	0x23a	; 0x23a <LCD_Clear>
				LCD_Home();
     634:	0e 94 27 01 	call	0x24e	; 0x24e <LCD_Home>
				LCD_WriteText("Blad wyboru instrukcji.");
     638:	80 ec       	ldi	r24, 0xC0	; 192
     63a:	91 e0       	ldi	r25, 0x01	; 1
     63c:	0e 94 06 01 	call	0x20c	; 0x20c <LCD_WriteText>
     640:	2f ef       	ldi	r18, 0xFF	; 255
     642:	89 e6       	ldi	r24, 0x69	; 105
     644:	98 e1       	ldi	r25, 0x18	; 24
     646:	21 50       	subi	r18, 0x01	; 1
     648:	80 40       	sbci	r24, 0x00	; 0
     64a:	90 40       	sbci	r25, 0x00	; 0
     64c:	e1 f7       	brne	.-8      	; 0x646 <Wybor_funkcji+0x6e>
     64e:	00 c0       	rjmp	.+0      	; 0x650 <Wybor_funkcji+0x78>
     650:	00 00       	nop
				_delay_ms(2000);
				licznik =0;
     652:	10 92 41 04 	sts	0x0441, r1
     656:	2f e7       	ldi	r18, 0x7F	; 127
     658:	8a e1       	ldi	r24, 0x1A	; 26
     65a:	96 e0       	ldi	r25, 0x06	; 6
     65c:	21 50       	subi	r18, 0x01	; 1
     65e:	80 40       	sbci	r24, 0x00	; 0
     660:	90 40       	sbci	r25, 0x00	; 0
     662:	e1 f7       	brne	.-8      	; 0x65c <Wybor_funkcji+0x84>
     664:	00 c0       	rjmp	.+0      	; 0x666 <Wybor_funkcji+0x8e>
     666:	00 00       	nop
		_delay_ms(500);			// opóŸnienie reakcji
		
		while(1)	//	petla obs³ugi przycisków
		{
			// sprawdzenie czerwonego przycisku
			if(!(BUTTON_PIN & (1<<BUTTON_RED)))
     668:	4f 99       	sbic	0x09, 7	; 9
     66a:	2e c0       	rjmp	.+92     	; 0x6c8 <Wybor_funkcji+0xf0>
     66c:	2f e7       	ldi	r18, 0x7F	; 127
     66e:	88 e3       	ldi	r24, 0x38	; 56
     670:	91 e0       	ldi	r25, 0x01	; 1
     672:	21 50       	subi	r18, 0x01	; 1
     674:	80 40       	sbci	r24, 0x00	; 0
     676:	90 40       	sbci	r25, 0x00	; 0
     678:	e1 f7       	brne	.-8      	; 0x672 <Wybor_funkcji+0x9a>
     67a:	00 c0       	rjmp	.+0      	; 0x67c <Wybor_funkcji+0xa4>
     67c:	00 00       	nop
			{
				_delay_ms(CZAS_ZWLOKI_PRZYCISKOW_MS);
				if(!(BUTTON_PIN & (1<<BUTTON_RED)))
     67e:	4f 99       	sbic	0x09, 7	; 9
     680:	23 c0       	rjmp	.+70     	; 0x6c8 <Wybor_funkcji+0xf0>
				{
					switch (licznik)
     682:	80 91 41 04 	lds	r24, 0x0441
     686:	81 30       	cpi	r24, 0x01	; 1
     688:	41 f0       	breq	.+16     	; 0x69a <Wybor_funkcji+0xc2>
     68a:	08 f4       	brcc	.+2      	; 0x68e <Wybor_funkcji+0xb6>
     68c:	45 c0       	rjmp	.+138    	; 0x718 <Wybor_funkcji+0x140>
     68e:	82 30       	cpi	r24, 0x02	; 2
     690:	09 f4       	brne	.+2      	; 0x694 <Wybor_funkcji+0xbc>
     692:	44 c0       	rjmp	.+136    	; 0x71c <Wybor_funkcji+0x144>
     694:	83 30       	cpi	r24, 0x03	; 3
     696:	19 f0       	breq	.+6      	; 0x69e <Wybor_funkcji+0xc6>
     698:	04 c0       	rjmp	.+8      	; 0x6a2 <Wybor_funkcji+0xca>
					{
						case 0:	//	Odczyt kodow 
							return M_ODCZYT_KODOW;
						case 1:	//	Przeglad kodow
							return M_WPROWADZENIE_KODOW;
     69a:	82 e0       	ldi	r24, 0x02	; 2
     69c:	08 95       	ret
						case 2:	//	Zmiana czasow
							return M_ZMIANY_CZASOW;
						case 3:	//	Zakoñcz
							return M_ZAKONCZ;
     69e:	86 e0       	ldi	r24, 0x06	; 6
     6a0:	08 95       	ret
						default:
						LCD_Clear();
     6a2:	0e 94 1d 01 	call	0x23a	; 0x23a <LCD_Clear>
						LCD_Home();
     6a6:	0e 94 27 01 	call	0x24e	; 0x24e <LCD_Home>
						LCD_WriteText("Blad wyboru funkcji.");
     6aa:	88 ed       	ldi	r24, 0xD8	; 216
     6ac:	91 e0       	ldi	r25, 0x01	; 1
     6ae:	0e 94 06 01 	call	0x20c	; 0x20c <LCD_WriteText>
     6b2:	2f ef       	ldi	r18, 0xFF	; 255
     6b4:	89 e6       	ldi	r24, 0x69	; 105
     6b6:	98 e1       	ldi	r25, 0x18	; 24
     6b8:	21 50       	subi	r18, 0x01	; 1
     6ba:	80 40       	sbci	r24, 0x00	; 0
     6bc:	90 40       	sbci	r25, 0x00	; 0
     6be:	e1 f7       	brne	.-8      	; 0x6b8 <Wybor_funkcji+0xe0>
     6c0:	00 c0       	rjmp	.+0      	; 0x6c2 <Wybor_funkcji+0xea>
     6c2:	00 00       	nop
						_delay_ms(2000);
						licznik =0;
     6c4:	10 92 41 04 	sts	0x0441, r1
					}
				}
			}
	
		   // sprawdzenie niebieskiego przycisku
		   if(!(BUTTON_PIN & (1<<BUTTON_BLUE)))
     6c8:	4d 99       	sbic	0x09, 5	; 9
     6ca:	12 c0       	rjmp	.+36     	; 0x6f0 <Wybor_funkcji+0x118>
     6cc:	2f e7       	ldi	r18, 0x7F	; 127
     6ce:	88 e3       	ldi	r24, 0x38	; 56
     6d0:	91 e0       	ldi	r25, 0x01	; 1
     6d2:	21 50       	subi	r18, 0x01	; 1
     6d4:	80 40       	sbci	r24, 0x00	; 0
     6d6:	90 40       	sbci	r25, 0x00	; 0
     6d8:	e1 f7       	brne	.-8      	; 0x6d2 <Wybor_funkcji+0xfa>
     6da:	00 c0       	rjmp	.+0      	; 0x6dc <Wybor_funkcji+0x104>
     6dc:	00 00       	nop
		   {
			   _delay_ms(CZAS_ZWLOKI_PRZYCISKOW_MS);
			   if(!(BUTTON_PIN & (1<<BUTTON_BLUE)))
     6de:	4d 99       	sbic	0x09, 5	; 9
     6e0:	07 c0       	rjmp	.+14     	; 0x6f0 <Wybor_funkcji+0x118>
			   {
					licznik++;
     6e2:	80 91 41 04 	lds	r24, 0x0441
     6e6:	8f 5f       	subi	r24, 0xFF	; 255
					licznik = licznik %4;	//	zmiana licznika 
     6e8:	83 70       	andi	r24, 0x03	; 3
     6ea:	80 93 41 04 	sts	0x0441, r24
					break;						//	powrót do duzej pêtli
     6ee:	7e cf       	rjmp	.-260    	; 0x5ec <Wybor_funkcji+0x14>
			   }
		   }

		   // sprawdzenie zielonego przycisku
		   if(!(BUTTON_PIN & (1<<BUTTON_GREEN)))
     6f0:	4e 99       	sbic	0x09, 6	; 9
     6f2:	ba cf       	rjmp	.-140    	; 0x668 <Wybor_funkcji+0x90>
     6f4:	2f e7       	ldi	r18, 0x7F	; 127
     6f6:	88 e3       	ldi	r24, 0x38	; 56
     6f8:	91 e0       	ldi	r25, 0x01	; 1
     6fa:	21 50       	subi	r18, 0x01	; 1
     6fc:	80 40       	sbci	r24, 0x00	; 0
     6fe:	90 40       	sbci	r25, 0x00	; 0
     700:	e1 f7       	brne	.-8      	; 0x6fa <Wybor_funkcji+0x122>
     702:	00 c0       	rjmp	.+0      	; 0x704 <Wybor_funkcji+0x12c>
     704:	00 00       	nop
		   {
			   _delay_ms(CZAS_ZWLOKI_PRZYCISKOW_MS);
			   if(!(BUTTON_PIN & (1<<BUTTON_GREEN)))
     706:	4e 99       	sbic	0x09, 6	; 9
     708:	af cf       	rjmp	.-162    	; 0x668 <Wybor_funkcji+0x90>
			   {
				   licznik--;
     70a:	80 91 41 04 	lds	r24, 0x0441
     70e:	81 50       	subi	r24, 0x01	; 1
				   licznik = licznik %4;	//	zmiana licznika
     710:	83 70       	andi	r24, 0x03	; 3
     712:	80 93 41 04 	sts	0x0441, r24
				   break;						//	powrót do duzej pêtli
     716:	6a cf       	rjmp	.-300    	; 0x5ec <Wybor_funkcji+0x14>
				if(!(BUTTON_PIN & (1<<BUTTON_RED)))
				{
					switch (licznik)
					{
						case 0:	//	Odczyt kodow 
							return M_ODCZYT_KODOW;
     718:	83 e0       	ldi	r24, 0x03	; 3
     71a:	08 95       	ret
						case 1:	//	Przeglad kodow
							return M_WPROWADZENIE_KODOW;
						case 2:	//	Zmiana czasow
							return M_ZMIANY_CZASOW;
     71c:	81 e0       	ldi	r24, 0x01	; 1
		}
   
	}

	return 0;
}
     71e:	08 95       	ret

00000720 <Zmiany_czasow>:
#ifdef TEST_n_zmiana_czasow			//	  
uint8_t Zmiany_czasow(void){return M_WYBOR_FUNKCJI;}	//kod zastêpczy do szybkiego wgrywania

#else
uint8_t Zmiany_czasow(void)
{
     720:	8f 92       	push	r8
     722:	9f 92       	push	r9
     724:	af 92       	push	r10
     726:	bf 92       	push	r11
     728:	cf 92       	push	r12
     72a:	df 92       	push	r13
     72c:	ef 92       	push	r14
     72e:	ff 92       	push	r15
     730:	0f 93       	push	r16
     732:	1f 93       	push	r17
     734:	cf 93       	push	r28
     736:	df 93       	push	r29
	float wartosc_s;
	licznik = 0;
     738:	10 92 41 04 	sts	0x0441, r1
	ADMUX &=~ (1<<ADLAR);					//	prawe wyjustowanie wyniku konwersji ADC
     73c:	ec e7       	ldi	r30, 0x7C	; 124
     73e:	f0 e0       	ldi	r31, 0x00	; 0
     740:	80 81       	ld	r24, Z
     742:	8f 7d       	andi	r24, 0xDF	; 223
     744:	80 83       	st	Z, r24
						_delay_ms(2000);
						return M_WYBOR_FUNKCJI;
					}
					else
					{
						ADCSRA |= (1<<ADSC);			//	start konwersji
     746:	ca e7       	ldi	r28, 0x7A	; 122
     748:	d0 e0       	ldi	r29, 0x00	; 0
								czas_konca =(ADC<<6);						//	odczyt wyniku konwersji
								wartosc_s = (float)czas_konca;
								break;
					
							case 1:
								czas_jednosci = (ADC<<4);						//	odczyt wyniku konwersji
     74a:	0f 2e       	mov	r0, r31
     74c:	f8 e7       	ldi	r31, 0x78	; 120
     74e:	ef 2e       	mov	r14, r31
     750:	f1 2c       	mov	r15, r1
     752:	f0 2d       	mov	r31, r0
								wartosc_s = (float)czas_przerw;
								break;
					
							
							default:
							wartosc_s = (float)-11;
     754:	a1 2c       	mov	r10, r1
     756:	b1 2c       	mov	r11, r1
     758:	0f 2e       	mov	r0, r31
     75a:	f0 e3       	ldi	r31, 0x30	; 48
     75c:	cf 2e       	mov	r12, r31
     75e:	f0 2d       	mov	r31, r0
     760:	0f 2e       	mov	r0, r31
     762:	f1 ec       	ldi	r31, 0xC1	; 193
     764:	df 2e       	mov	r13, r31
     766:	f0 2d       	mov	r31, r0
	licznik = 0;
	ADMUX &=~ (1<<ADLAR);					//	prawe wyjustowanie wyniku konwersji ADC
	                                       
	while(1)		//	du¿a pêtla z wyswietlaniem
	{
		LCD_Clear();                                                     //czyszczenie lcd
     768:	0e 94 1d 01 	call	0x23a	; 0x23a <LCD_Clear>
		LCD_Home();
     76c:	0e 94 27 01 	call	0x24e	; 0x24e <LCD_Home>
		switch (licznik)
     770:	80 91 41 04 	lds	r24, 0x0441
     774:	81 30       	cpi	r24, 0x01	; 1
     776:	81 f1       	breq	.+96     	; 0x7d8 <Zmiany_czasow+0xb8>
     778:	38 f0       	brcs	.+14     	; 0x788 <Zmiany_czasow+0x68>
     77a:	82 30       	cpi	r24, 0x02	; 2
     77c:	09 f4       	brne	.+2      	; 0x780 <Zmiany_czasow+0x60>
     77e:	54 c0       	rjmp	.+168    	; 0x828 <Zmiany_czasow+0x108>
     780:	83 30       	cpi	r24, 0x03	; 3
     782:	09 f4       	brne	.+2      	; 0x786 <Zmiany_czasow+0x66>
     784:	79 c0       	rjmp	.+242    	; 0x878 <Zmiany_czasow+0x158>
     786:	85 c0       	rjmp	.+266    	; 0x892 <Zmiany_czasow+0x172>
		{
			case 0:
			LCD_WriteText("Czas:      KONCA");                      // wyœwietlanie pierwszego wiersza
     788:	8d ee       	ldi	r24, 0xED	; 237
     78a:	91 e0       	ldi	r25, 0x01	; 1
     78c:	0e 94 06 01 	call	0x20c	; 0x20c <LCD_WriteText>
			LCD_GoTo(M_DRUGA_LINIA_P1);
     790:	61 e0       	ldi	r22, 0x01	; 1
     792:	80 e0       	ldi	r24, 0x00	; 0
     794:	0e 94 15 01 	call	0x22a	; 0x22a <LCD_GoTo>
			dtostrf(((float)czas_konca)/3600,4,2,string_16_znakow);
     798:	60 91 44 06 	lds	r22, 0x0644
     79c:	70 91 45 06 	lds	r23, 0x0645
     7a0:	80 e0       	ldi	r24, 0x00	; 0
     7a2:	90 e0       	ldi	r25, 0x00	; 0
     7a4:	0e 94 61 0e 	call	0x1cc2	; 0x1cc2 <__floatunsisf>
     7a8:	20 e0       	ldi	r18, 0x00	; 0
     7aa:	30 e0       	ldi	r19, 0x00	; 0
     7ac:	41 e6       	ldi	r20, 0x61	; 97
     7ae:	55 e4       	ldi	r21, 0x45	; 69
     7b0:	0e 94 ef 0d 	call	0x1bde	; 0x1bde <__divsf3>
     7b4:	07 e4       	ldi	r16, 0x47	; 71
     7b6:	16 e0       	ldi	r17, 0x06	; 6
     7b8:	22 e0       	ldi	r18, 0x02	; 2
     7ba:	44 e0       	ldi	r20, 0x04	; 4
     7bc:	0e 94 29 0f 	call	0x1e52	; 0x1e52 <dtostrf>
			LCD_WriteText(string_16_znakow);
     7c0:	c8 01       	movw	r24, r16
     7c2:	0e 94 06 01 	call	0x20c	; 0x20c <LCD_WriteText>
			LCD_GoTo(5,1);
     7c6:	61 e0       	ldi	r22, 0x01	; 1
     7c8:	85 e0       	ldi	r24, 0x05	; 5
     7ca:	0e 94 15 01 	call	0x22a	; 0x22a <LCD_GoTo>
			LCD_WriteText("s");
     7ce:	8e ef       	ldi	r24, 0xFE	; 254
     7d0:	91 e0       	ldi	r25, 0x01	; 1
     7d2:	0e 94 06 01 	call	0x20c	; 0x20c <LCD_WriteText>
			break;
     7d6:	70 c0       	rjmp	.+224    	; 0x8b8 <Zmiany_czasow+0x198>
			
			case 1:
			LCD_WriteText("Czas:   JEDNOSCI");                      //	wyœwietlanie pierwszego wiersza
     7d8:	80 e0       	ldi	r24, 0x00	; 0
     7da:	92 e0       	ldi	r25, 0x02	; 2
     7dc:	0e 94 06 01 	call	0x20c	; 0x20c <LCD_WriteText>
			LCD_GoTo(M_DRUGA_LINIA_P1);
     7e0:	61 e0       	ldi	r22, 0x01	; 1
     7e2:	80 e0       	ldi	r24, 0x00	; 0
     7e4:	0e 94 15 01 	call	0x22a	; 0x22a <LCD_GoTo>
			dtostrf(((float)czas_jednosci)/3600,4,2,string_16_znakow);
     7e8:	60 91 6f 06 	lds	r22, 0x066F
     7ec:	70 91 70 06 	lds	r23, 0x0670
     7f0:	80 e0       	ldi	r24, 0x00	; 0
     7f2:	90 e0       	ldi	r25, 0x00	; 0
     7f4:	0e 94 61 0e 	call	0x1cc2	; 0x1cc2 <__floatunsisf>
     7f8:	20 e0       	ldi	r18, 0x00	; 0
     7fa:	30 e0       	ldi	r19, 0x00	; 0
     7fc:	41 e6       	ldi	r20, 0x61	; 97
     7fe:	55 e4       	ldi	r21, 0x45	; 69
     800:	0e 94 ef 0d 	call	0x1bde	; 0x1bde <__divsf3>
     804:	07 e4       	ldi	r16, 0x47	; 71
     806:	16 e0       	ldi	r17, 0x06	; 6
     808:	22 e0       	ldi	r18, 0x02	; 2
     80a:	44 e0       	ldi	r20, 0x04	; 4
     80c:	0e 94 29 0f 	call	0x1e52	; 0x1e52 <dtostrf>
			LCD_WriteText(string_16_znakow);
     810:	c8 01       	movw	r24, r16
     812:	0e 94 06 01 	call	0x20c	; 0x20c <LCD_WriteText>
			LCD_GoTo(5,1);
     816:	61 e0       	ldi	r22, 0x01	; 1
     818:	85 e0       	ldi	r24, 0x05	; 5
     81a:	0e 94 15 01 	call	0x22a	; 0x22a <LCD_GoTo>
			LCD_WriteText("s");
     81e:	8e ef       	ldi	r24, 0xFE	; 254
     820:	91 e0       	ldi	r25, 0x01	; 1
     822:	0e 94 06 01 	call	0x20c	; 0x20c <LCD_WriteText>
			break;
     826:	48 c0       	rjmp	.+144    	; 0x8b8 <Zmiany_czasow+0x198>
			
			case 2:
			LCD_WriteText("Czas:     PRZERW");                      //	wyœwietlanie pierwszego wiersza
     828:	81 e1       	ldi	r24, 0x11	; 17
     82a:	92 e0       	ldi	r25, 0x02	; 2
     82c:	0e 94 06 01 	call	0x20c	; 0x20c <LCD_WriteText>
			LCD_GoTo(M_DRUGA_LINIA_P1);
     830:	61 e0       	ldi	r22, 0x01	; 1
     832:	80 e0       	ldi	r24, 0x00	; 0
     834:	0e 94 15 01 	call	0x22a	; 0x22a <LCD_GoTo>
			dtostrf(((float)czas_przerw)/3600,4,2,string_16_znakow);
     838:	60 91 42 04 	lds	r22, 0x0442
     83c:	70 91 43 04 	lds	r23, 0x0443
     840:	80 e0       	ldi	r24, 0x00	; 0
     842:	90 e0       	ldi	r25, 0x00	; 0
     844:	0e 94 61 0e 	call	0x1cc2	; 0x1cc2 <__floatunsisf>
     848:	20 e0       	ldi	r18, 0x00	; 0
     84a:	30 e0       	ldi	r19, 0x00	; 0
     84c:	41 e6       	ldi	r20, 0x61	; 97
     84e:	55 e4       	ldi	r21, 0x45	; 69
     850:	0e 94 ef 0d 	call	0x1bde	; 0x1bde <__divsf3>
     854:	07 e4       	ldi	r16, 0x47	; 71
     856:	16 e0       	ldi	r17, 0x06	; 6
     858:	22 e0       	ldi	r18, 0x02	; 2
     85a:	44 e0       	ldi	r20, 0x04	; 4
     85c:	0e 94 29 0f 	call	0x1e52	; 0x1e52 <dtostrf>
			LCD_WriteText(string_16_znakow);
     860:	c8 01       	movw	r24, r16
     862:	0e 94 06 01 	call	0x20c	; 0x20c <LCD_WriteText>
			LCD_GoTo(5,1);
     866:	61 e0       	ldi	r22, 0x01	; 1
     868:	85 e0       	ldi	r24, 0x05	; 5
     86a:	0e 94 15 01 	call	0x22a	; 0x22a <LCD_GoTo>
			LCD_WriteText("s");
     86e:	8e ef       	ldi	r24, 0xFE	; 254
     870:	91 e0       	ldi	r25, 0x01	; 1
     872:	0e 94 06 01 	call	0x20c	; 0x20c <LCD_WriteText>
			break;
     876:	20 c0       	rjmp	.+64     	; 0x8b8 <Zmiany_czasow+0x198>
			
			case 3:
			LCD_WriteText("Zapisac?        ");                      //	wyœwietlanie pierwszego wiersza
     878:	82 e2       	ldi	r24, 0x22	; 34
     87a:	92 e0       	ldi	r25, 0x02	; 2
     87c:	0e 94 06 01 	call	0x20c	; 0x20c <LCD_WriteText>
			LCD_GoTo(M_DRUGA_LINIA_P1);								//	przejscie do 2 lini
     880:	61 e0       	ldi	r22, 0x01	; 1
     882:	80 e0       	ldi	r24, 0x00	; 0
     884:	0e 94 15 01 	call	0x22a	; 0x22a <LCD_GoTo>
			LCD_WriteText("Zielony = TAK   ");                      // wyœwietlanie drugiego wiersza
     888:	83 e3       	ldi	r24, 0x33	; 51
     88a:	92 e0       	ldi	r25, 0x02	; 2
     88c:	0e 94 06 01 	call	0x20c	; 0x20c <LCD_WriteText>
			break;
     890:	13 c0       	rjmp	.+38     	; 0x8b8 <Zmiany_czasow+0x198>
			
			default:
			LCD_Clear();
     892:	0e 94 1d 01 	call	0x23a	; 0x23a <LCD_Clear>
			LCD_Home();
     896:	0e 94 27 01 	call	0x24e	; 0x24e <LCD_Home>
			LCD_WriteText("Blad wyboru instrukcji.");
     89a:	80 ec       	ldi	r24, 0xC0	; 192
     89c:	91 e0       	ldi	r25, 0x01	; 1
     89e:	0e 94 06 01 	call	0x20c	; 0x20c <LCD_WriteText>
     8a2:	2f ef       	ldi	r18, 0xFF	; 255
     8a4:	89 e6       	ldi	r24, 0x69	; 105
     8a6:	98 e1       	ldi	r25, 0x18	; 24
     8a8:	21 50       	subi	r18, 0x01	; 1
     8aa:	80 40       	sbci	r24, 0x00	; 0
     8ac:	90 40       	sbci	r25, 0x00	; 0
     8ae:	e1 f7       	brne	.-8      	; 0x8a8 <Zmiany_czasow+0x188>
     8b0:	00 c0       	rjmp	.+0      	; 0x8b2 <Zmiany_czasow+0x192>
     8b2:	00 00       	nop
			_delay_ms(2000);
			licznik =0;
     8b4:	10 92 41 04 	sts	0x0441, r1
			break;
		}
		
		while(1)	//	petla obs³ugi przycisków
		{
			if(!(BUTTON_PIN & (1<<BUTTON_GREEN)))
     8b8:	4e 99       	sbic	0x09, 6	; 9
     8ba:	c2 c0       	rjmp	.+388    	; 0xa40 <__stack+0x141>
     8bc:	ef e7       	ldi	r30, 0x7F	; 127
     8be:	f8 e3       	ldi	r31, 0x38	; 56
     8c0:	21 e0       	ldi	r18, 0x01	; 1
     8c2:	e1 50       	subi	r30, 0x01	; 1
     8c4:	f0 40       	sbci	r31, 0x00	; 0
     8c6:	20 40       	sbci	r18, 0x00	; 0
     8c8:	e1 f7       	brne	.-8      	; 0x8c2 <Zmiany_czasow+0x1a2>
     8ca:	00 c0       	rjmp	.+0      	; 0x8cc <Zmiany_czasow+0x1ac>
     8cc:	00 00       	nop
			{
				_delay_ms(CZAS_ZWLOKI_PRZYCISKOW_MS);
				if(!(BUTTON_PIN & (1<<BUTTON_GREEN)))
     8ce:	4e 99       	sbic	0x09, 6	; 9
     8d0:	b7 c0       	rjmp	.+366    	; 0xa40 <__stack+0x141>
				{
					if(licznik == 3)
     8d2:	80 91 41 04 	lds	r24, 0x0441
     8d6:	83 30       	cpi	r24, 0x03	; 3
     8d8:	51 f5       	brne	.+84     	; 0x92e <__stack+0x2f>
					{
						eeprom_write_word((uint16_t *)EEPROM_ADR_CZAS_KONCA,czas_konca);
     8da:	60 91 44 06 	lds	r22, 0x0644
     8de:	70 91 45 06 	lds	r23, 0x0645
     8e2:	82 e0       	ldi	r24, 0x02	; 2
     8e4:	90 e0       	ldi	r25, 0x00	; 0
     8e6:	0e 94 df 11 	call	0x23be	; 0x23be <eeprom_write_word>
						eeprom_write_word((uint16_t *)EEPROM_ADR_CZAS_JEDNOSCI,czas_jednosci);
     8ea:	60 91 6f 06 	lds	r22, 0x066F
     8ee:	70 91 70 06 	lds	r23, 0x0670
     8f2:	84 e0       	ldi	r24, 0x04	; 4
     8f4:	90 e0       	ldi	r25, 0x00	; 0
     8f6:	0e 94 df 11 	call	0x23be	; 0x23be <eeprom_write_word>
						eeprom_write_word((uint16_t *)EEPROM_ADR_CZAS_PRZERW,czas_przerw);	
     8fa:	60 91 42 04 	lds	r22, 0x0442
     8fe:	70 91 43 04 	lds	r23, 0x0443
     902:	86 e0       	ldi	r24, 0x06	; 6
     904:	90 e0       	ldi	r25, 0x00	; 0
     906:	0e 94 df 11 	call	0x23be	; 0x23be <eeprom_write_word>
						LCD_Clear();
     90a:	0e 94 1d 01 	call	0x23a	; 0x23a <LCD_Clear>
						LCD_Home();
     90e:	0e 94 27 01 	call	0x24e	; 0x24e <LCD_Home>
						LCD_WriteText("    ZAPISANO    ");
     912:	84 e4       	ldi	r24, 0x44	; 68
     914:	92 e0       	ldi	r25, 0x02	; 2
     916:	0e 94 06 01 	call	0x20c	; 0x20c <LCD_WriteText>
     91a:	8f ef       	ldi	r24, 0xFF	; 255
     91c:	99 e6       	ldi	r25, 0x69	; 105
     91e:	e8 e1       	ldi	r30, 0x18	; 24
     920:	81 50       	subi	r24, 0x01	; 1
     922:	90 40       	sbci	r25, 0x00	; 0
     924:	e0 40       	sbci	r30, 0x00	; 0
     926:	e1 f7       	brne	.-8      	; 0x920 <__stack+0x21>
     928:	00 c0       	rjmp	.+0      	; 0x92a <__stack+0x2b>
     92a:	00 00       	nop
						_delay_ms(2000);
						return M_WYBOR_FUNKCJI;
     92c:	0c c1       	rjmp	.+536    	; 0xb46 <__stack+0x247>
					}
					else
					{
						ADCSRA |= (1<<ADSC);			//	start konwersji
     92e:	88 81       	ld	r24, Y
     930:	80 64       	ori	r24, 0x40	; 64
     932:	88 83       	st	Y, r24
						while(ADCSRA &(1<<ADSC)) ;		//	czekanie na koniec konwersji
     934:	88 81       	ld	r24, Y
     936:	86 fd       	sbrc	r24, 6
     938:	fd cf       	rjmp	.-6      	; 0x934 <__stack+0x35>
						//pomiar = ADC;						//	odczyt wyniku konwersji
												
						//	przypisanie do odpowiedniej zmiennej
						switch (licznik)
     93a:	80 91 41 04 	lds	r24, 0x0441
     93e:	81 30       	cpi	r24, 0x01	; 1
     940:	e9 f0       	breq	.+58     	; 0x97c <__stack+0x7d>
     942:	18 f0       	brcs	.+6      	; 0x94a <__stack+0x4b>
     944:	82 30       	cpi	r24, 0x02	; 2
     946:	81 f1       	breq	.+96     	; 0x9a8 <__stack+0xa9>
     948:	45 c0       	rjmp	.+138    	; 0x9d4 <__stack+0xd5>
						{
							case 0:
								czas_konca =(ADC<<6);						//	odczyt wyniku konwersji
     94a:	f7 01       	movw	r30, r14
     94c:	60 81       	ld	r22, Z
     94e:	71 81       	ldd	r23, Z+1	; 0x01
     950:	00 24       	eor	r0, r0
     952:	76 95       	lsr	r23
     954:	67 95       	ror	r22
     956:	07 94       	ror	r0
     958:	76 95       	lsr	r23
     95a:	67 95       	ror	r22
     95c:	07 94       	ror	r0
     95e:	76 2f       	mov	r23, r22
     960:	60 2d       	mov	r22, r0
     962:	70 93 45 06 	sts	0x0645, r23
     966:	60 93 44 06 	sts	0x0644, r22
								wartosc_s = (float)czas_konca;
     96a:	80 e0       	ldi	r24, 0x00	; 0
     96c:	90 e0       	ldi	r25, 0x00	; 0
     96e:	0e 94 61 0e 	call	0x1cc2	; 0x1cc2 <__floatunsisf>
     972:	86 2e       	mov	r8, r22
     974:	97 2e       	mov	r9, r23
     976:	08 2f       	mov	r16, r24
     978:	19 2f       	mov	r17, r25
								break;
     97a:	43 c0       	rjmp	.+134    	; 0xa02 <__stack+0x103>
					
							case 1:
								czas_jednosci = (ADC<<4);						//	odczyt wyniku konwersji
     97c:	f7 01       	movw	r30, r14
     97e:	60 81       	ld	r22, Z
     980:	71 81       	ldd	r23, Z+1	; 0x01
     982:	62 95       	swap	r22
     984:	72 95       	swap	r23
     986:	70 7f       	andi	r23, 0xF0	; 240
     988:	76 27       	eor	r23, r22
     98a:	60 7f       	andi	r22, 0xF0	; 240
     98c:	76 27       	eor	r23, r22
     98e:	70 93 70 06 	sts	0x0670, r23
     992:	60 93 6f 06 	sts	0x066F, r22
								wartosc_s = (float)czas_jednosci;
     996:	80 e0       	ldi	r24, 0x00	; 0
     998:	90 e0       	ldi	r25, 0x00	; 0
     99a:	0e 94 61 0e 	call	0x1cc2	; 0x1cc2 <__floatunsisf>
     99e:	86 2e       	mov	r8, r22
     9a0:	97 2e       	mov	r9, r23
     9a2:	08 2f       	mov	r16, r24
     9a4:	19 2f       	mov	r17, r25
								break;
     9a6:	2d c0       	rjmp	.+90     	; 0xa02 <__stack+0x103>
					
							case 2:
								czas_przerw = (ADC<<4);						//	odczyt wyniku konwersji                      
     9a8:	f7 01       	movw	r30, r14
     9aa:	60 81       	ld	r22, Z
     9ac:	71 81       	ldd	r23, Z+1	; 0x01
     9ae:	62 95       	swap	r22
     9b0:	72 95       	swap	r23
     9b2:	70 7f       	andi	r23, 0xF0	; 240
     9b4:	76 27       	eor	r23, r22
     9b6:	60 7f       	andi	r22, 0xF0	; 240
     9b8:	76 27       	eor	r23, r22
     9ba:	70 93 43 04 	sts	0x0443, r23
     9be:	60 93 42 04 	sts	0x0442, r22
								wartosc_s = (float)czas_przerw;
     9c2:	80 e0       	ldi	r24, 0x00	; 0
     9c4:	90 e0       	ldi	r25, 0x00	; 0
     9c6:	0e 94 61 0e 	call	0x1cc2	; 0x1cc2 <__floatunsisf>
     9ca:	86 2e       	mov	r8, r22
     9cc:	97 2e       	mov	r9, r23
     9ce:	08 2f       	mov	r16, r24
     9d0:	19 2f       	mov	r17, r25
								break;
     9d2:	17 c0       	rjmp	.+46     	; 0xa02 <__stack+0x103>
					
							
							default:
							wartosc_s = (float)-11;
							LCD_Clear();
     9d4:	0e 94 1d 01 	call	0x23a	; 0x23a <LCD_Clear>
							LCD_Home();
     9d8:	0e 94 27 01 	call	0x24e	; 0x24e <LCD_Home>
							LCD_WriteText("Blad wyboru    .");
     9dc:	85 e5       	ldi	r24, 0x55	; 85
     9de:	92 e0       	ldi	r25, 0x02	; 2
     9e0:	0e 94 06 01 	call	0x20c	; 0x20c <LCD_WriteText>
     9e4:	ff ef       	ldi	r31, 0xFF	; 255
     9e6:	29 e6       	ldi	r18, 0x69	; 105
     9e8:	88 e1       	ldi	r24, 0x18	; 24
     9ea:	f1 50       	subi	r31, 0x01	; 1
     9ec:	20 40       	sbci	r18, 0x00	; 0
     9ee:	80 40       	sbci	r24, 0x00	; 0
     9f0:	e1 f7       	brne	.-8      	; 0x9ea <__stack+0xeb>
     9f2:	00 c0       	rjmp	.+0      	; 0x9f4 <__stack+0xf5>
     9f4:	00 00       	nop
							_delay_ms(2000);
							licznik = 0;
     9f6:	10 92 41 04 	sts	0x0441, r1
								wartosc_s = (float)czas_przerw;
								break;
					
							
							default:
							wartosc_s = (float)-11;
     9fa:	8a 2c       	mov	r8, r10
     9fc:	9b 2c       	mov	r9, r11
     9fe:	0c 2d       	mov	r16, r12
     a00:	1d 2d       	mov	r17, r13
							licznik = 0;
							break;
						}
						
						//	wyswietlenie zmierzonej wartosci
						LCD_GoTo(10,1);					
     a02:	61 e0       	ldi	r22, 0x01	; 1
     a04:	8a e0       	ldi	r24, 0x0A	; 10
     a06:	0e 94 15 01 	call	0x22a	; 0x22a <LCD_GoTo>
						dtostrf(wartosc_s/3600,4,2,string_16_znakow);
     a0a:	20 e0       	ldi	r18, 0x00	; 0
     a0c:	30 e0       	ldi	r19, 0x00	; 0
     a0e:	41 e6       	ldi	r20, 0x61	; 97
     a10:	55 e4       	ldi	r21, 0x45	; 69
     a12:	68 2d       	mov	r22, r8
     a14:	79 2d       	mov	r23, r9
     a16:	80 2f       	mov	r24, r16
     a18:	91 2f       	mov	r25, r17
     a1a:	0e 94 ef 0d 	call	0x1bde	; 0x1bde <__divsf3>
     a1e:	07 e4       	ldi	r16, 0x47	; 71
     a20:	16 e0       	ldi	r17, 0x06	; 6
     a22:	22 e0       	ldi	r18, 0x02	; 2
     a24:	44 e0       	ldi	r20, 0x04	; 4
     a26:	0e 94 29 0f 	call	0x1e52	; 0x1e52 <dtostrf>
						LCD_WriteText(string_16_znakow);
     a2a:	c8 01       	movw	r24, r16
     a2c:	0e 94 06 01 	call	0x20c	; 0x20c <LCD_WriteText>
						LCD_GoTo(15,1);
     a30:	61 e0       	ldi	r22, 0x01	; 1
     a32:	8f e0       	ldi	r24, 0x0F	; 15
     a34:	0e 94 15 01 	call	0x22a	; 0x22a <LCD_GoTo>
						LCD_WriteText("s");
     a38:	8e ef       	ldi	r24, 0xFE	; 254
     a3a:	91 e0       	ldi	r25, 0x01	; 1
     a3c:	0e 94 06 01 	call	0x20c	; 0x20c <LCD_WriteText>
				}
			}
		
			
			// sprawdzenie niebieskiego przycisku
			if(!(BUTTON_PIN & (1<<BUTTON_BLUE)))
     a40:	4d 99       	sbic	0x09, 5	; 9
     a42:	12 c0       	rjmp	.+36     	; 0xa68 <__stack+0x169>
     a44:	9f e7       	ldi	r25, 0x7F	; 127
     a46:	e8 e3       	ldi	r30, 0x38	; 56
     a48:	f1 e0       	ldi	r31, 0x01	; 1
     a4a:	91 50       	subi	r25, 0x01	; 1
     a4c:	e0 40       	sbci	r30, 0x00	; 0
     a4e:	f0 40       	sbci	r31, 0x00	; 0
     a50:	e1 f7       	brne	.-8      	; 0xa4a <__stack+0x14b>
     a52:	00 c0       	rjmp	.+0      	; 0xa54 <__stack+0x155>
     a54:	00 00       	nop
			{
				_delay_ms(CZAS_ZWLOKI_PRZYCISKOW_MS);
				if(!(BUTTON_PIN & (1<<BUTTON_BLUE)))
     a56:	4d 99       	sbic	0x09, 5	; 9
     a58:	07 c0       	rjmp	.+14     	; 0xa68 <__stack+0x169>
				{
					licznik++;
     a5a:	80 91 41 04 	lds	r24, 0x0441
     a5e:	8f 5f       	subi	r24, 0xFF	; 255
					licznik = licznik %4;	//	zmiana licznika
     a60:	83 70       	andi	r24, 0x03	; 3
     a62:	80 93 41 04 	sts	0x0441, r24
					break;						//	powrót do duzej pêtli
     a66:	80 ce       	rjmp	.-768    	; 0x768 <Zmiany_czasow+0x48>
				}
			}

			// sprawdzenie czerwonego przycisku
			if(!(BUTTON_PIN & (1<<BUTTON_RED)))
     a68:	4f 99       	sbic	0x09, 7	; 9
     a6a:	26 cf       	rjmp	.-436    	; 0x8b8 <Zmiany_czasow+0x198>
     a6c:	2f e7       	ldi	r18, 0x7F	; 127
     a6e:	88 e3       	ldi	r24, 0x38	; 56
     a70:	91 e0       	ldi	r25, 0x01	; 1
     a72:	21 50       	subi	r18, 0x01	; 1
     a74:	80 40       	sbci	r24, 0x00	; 0
     a76:	90 40       	sbci	r25, 0x00	; 0
     a78:	e1 f7       	brne	.-8      	; 0xa72 <__stack+0x173>
     a7a:	00 c0       	rjmp	.+0      	; 0xa7c <__stack+0x17d>
     a7c:	00 00       	nop
			{
				_delay_ms(CZAS_ZWLOKI_PRZYCISKOW_MS);
				if(!(BUTTON_PIN & (1<<BUTTON_RED)))
     a7e:	4f 99       	sbic	0x09, 7	; 9
     a80:	5c c0       	rjmp	.+184    	; 0xb3a <__stack+0x23b>
				{	
					i=1;
     a82:	81 e0       	ldi	r24, 0x01	; 1
     a84:	80 93 46 06 	sts	0x0646, r24
					LCD_Clear();
     a88:	0e 94 1d 01 	call	0x23a	; 0x23a <LCD_Clear>
					LCD_Home();
     a8c:	0e 94 27 01 	call	0x24e	; 0x24e <LCD_Home>
					LCD_WriteText("Wyjsce bez zapisu?");                      //	wyœwietlanie pierwszego wiersza
     a90:	86 e6       	ldi	r24, 0x66	; 102
     a92:	92 e0       	ldi	r25, 0x02	; 2
     a94:	0e 94 06 01 	call	0x20c	; 0x20c <LCD_WriteText>
					LCD_GoTo(M_DRUGA_LINIA_P1);								//	przejscie do 2 lini
     a98:	61 e0       	ldi	r22, 0x01	; 1
     a9a:	80 e0       	ldi	r24, 0x00	; 0
     a9c:	0e 94 15 01 	call	0x22a	; 0x22a <LCD_GoTo>
					LCD_WriteText("Zielony = TAK  Niebieski = ANULUJ   ");                      // wyœwietlanie drugiego wiersza
     aa0:	89 e7       	ldi	r24, 0x79	; 121
     aa2:	92 e0       	ldi	r25, 0x02	; 2
     aa4:	0e 94 06 01 	call	0x20c	; 0x20c <LCD_WriteText>
     aa8:	ef ef       	ldi	r30, 0xFF	; 255
     aaa:	f4 e3       	ldi	r31, 0x34	; 52
     aac:	2c e0       	ldi	r18, 0x0C	; 12
     aae:	e1 50       	subi	r30, 0x01	; 1
     ab0:	f0 40       	sbci	r31, 0x00	; 0
     ab2:	20 40       	sbci	r18, 0x00	; 0
     ab4:	e1 f7       	brne	.-8      	; 0xaae <__stack+0x1af>
     ab6:	00 c0       	rjmp	.+0      	; 0xab8 <__stack+0x1b9>
     ab8:	00 00       	nop
					_delay_ms(1000);
					while(1)
					{
						if(!(BUTTON_PIN & (1<<BUTTON_GREEN)))
     aba:	4e 99       	sbic	0x09, 6	; 9
     abc:	24 c0       	rjmp	.+72     	; 0xb06 <__stack+0x207>
     abe:	8f e7       	ldi	r24, 0x7F	; 127
     ac0:	98 e3       	ldi	r25, 0x38	; 56
     ac2:	e1 e0       	ldi	r30, 0x01	; 1
     ac4:	81 50       	subi	r24, 0x01	; 1
     ac6:	90 40       	sbci	r25, 0x00	; 0
     ac8:	e0 40       	sbci	r30, 0x00	; 0
     aca:	e1 f7       	brne	.-8      	; 0xac4 <__stack+0x1c5>
     acc:	00 c0       	rjmp	.+0      	; 0xace <__stack+0x1cf>
     ace:	00 00       	nop
						{
							_delay_ms(CZAS_ZWLOKI_PRZYCISKOW_MS);
							if(!(BUTTON_PIN & (1<<BUTTON_GREEN)))
     ad0:	4e 99       	sbic	0x09, 6	; 9
     ad2:	19 c0       	rjmp	.+50     	; 0xb06 <__stack+0x207>
							{
								czas_konca = eeprom_read_word((const uint16_t *) EEPROM_ADR_CZAS_KONCA);
     ad4:	82 e0       	ldi	r24, 0x02	; 2
     ad6:	90 e0       	ldi	r25, 0x00	; 0
     ad8:	0e 94 d9 11 	call	0x23b2	; 0x23b2 <eeprom_read_word>
     adc:	90 93 45 06 	sts	0x0645, r25
     ae0:	80 93 44 06 	sts	0x0644, r24
								czas_jednosci = eeprom_read_word((const uint16_t *) EEPROM_ADR_CZAS_JEDNOSCI);
     ae4:	84 e0       	ldi	r24, 0x04	; 4
     ae6:	90 e0       	ldi	r25, 0x00	; 0
     ae8:	0e 94 d9 11 	call	0x23b2	; 0x23b2 <eeprom_read_word>
     aec:	90 93 70 06 	sts	0x0670, r25
     af0:	80 93 6f 06 	sts	0x066F, r24
								czas_przerw = eeprom_read_word((const uint16_t *) EEPROM_ADR_CZAS_PRZERW);
     af4:	86 e0       	ldi	r24, 0x06	; 6
     af6:	90 e0       	ldi	r25, 0x00	; 0
     af8:	0e 94 d9 11 	call	0x23b2	; 0x23b2 <eeprom_read_word>
     afc:	90 93 43 04 	sts	0x0443, r25
     b00:	80 93 42 04 	sts	0x0442, r24
								return M_WYBOR_FUNKCJI;
     b04:	20 c0       	rjmp	.+64     	; 0xb46 <__stack+0x247>
							}
						}
						

						if(!(BUTTON_PIN & (1<<BUTTON_BLUE)))
     b06:	4d 99       	sbic	0x09, 5	; 9
     b08:	0b c0       	rjmp	.+22     	; 0xb20 <__stack+0x221>
     b0a:	ff e7       	ldi	r31, 0x7F	; 127
     b0c:	28 e3       	ldi	r18, 0x38	; 56
     b0e:	81 e0       	ldi	r24, 0x01	; 1
     b10:	f1 50       	subi	r31, 0x01	; 1
     b12:	20 40       	sbci	r18, 0x00	; 0
     b14:	80 40       	sbci	r24, 0x00	; 0
     b16:	e1 f7       	brne	.-8      	; 0xb10 <__stack+0x211>
     b18:	00 c0       	rjmp	.+0      	; 0xb1a <__stack+0x21b>
     b1a:	00 00       	nop
						{
							_delay_ms(CZAS_ZWLOKI_PRZYCISKOW_MS);
							if(!(BUTTON_PIN & (1<<BUTTON_BLUE)))
     b1c:	4d 9b       	sbis	0x09, 5	; 9
     b1e:	0d c0       	rjmp	.+26     	; 0xb3a <__stack+0x23b>
							{
								break;
							}
						}

						LCD_WriteCommand(HD44780_DISPLAY_CURSOR_SHIFT | HD44780_SHIFT_DISPLAY | HD44780_SHIFT_LEFT);
     b20:	88 e1       	ldi	r24, 0x18	; 24
     b22:	0e 94 fe 00 	call	0x1fc	; 0x1fc <LCD_WriteCommand>
     b26:	9f e7       	ldi	r25, 0x7F	; 127
     b28:	ea e1       	ldi	r30, 0x1A	; 26
     b2a:	f6 e0       	ldi	r31, 0x06	; 6
     b2c:	91 50       	subi	r25, 0x01	; 1
     b2e:	e0 40       	sbci	r30, 0x00	; 0
     b30:	f0 40       	sbci	r31, 0x00	; 0
     b32:	e1 f7       	brne	.-8      	; 0xb2c <__stack+0x22d>
     b34:	00 c0       	rjmp	.+0      	; 0xb36 <__stack+0x237>
     b36:	00 00       	nop
     b38:	c0 cf       	rjmp	.-128    	; 0xaba <__stack+0x1bb>
						_delay_ms(500);
					}
				}

			if (i==1){break;}
     b3a:	80 91 46 06 	lds	r24, 0x0646
     b3e:	81 30       	cpi	r24, 0x01	; 1
     b40:	09 f0       	breq	.+2      	; 0xb44 <__stack+0x245>
     b42:	ba ce       	rjmp	.-652    	; 0x8b8 <Zmiany_czasow+0x198>
     b44:	11 ce       	rjmp	.-990    	; 0x768 <Zmiany_czasow+0x48>
			

		}
	}
	return M_WYBOR_FUNKCJI;
}
     b46:	80 e0       	ldi	r24, 0x00	; 0
     b48:	df 91       	pop	r29
     b4a:	cf 91       	pop	r28
     b4c:	1f 91       	pop	r17
     b4e:	0f 91       	pop	r16
     b50:	ff 90       	pop	r15
     b52:	ef 90       	pop	r14
     b54:	df 90       	pop	r13
     b56:	cf 90       	pop	r12
     b58:	bf 90       	pop	r11
     b5a:	af 90       	pop	r10
     b5c:	9f 90       	pop	r9
     b5e:	8f 90       	pop	r8
     b60:	08 95       	ret

00000b62 <Wprowadzenie_kodow>:
#ifdef TEST_n_wprowadzenie_kodow	//	
uint8_t Wprowadzenie_kodow(void){return M_CZY_DEKODOWAC_KODY;}	//kod zastêpczy do szybkiego wgrywania

#else
uint8_t Wprowadzenie_kodow(void)
{
     b62:	ef 92       	push	r14
     b64:	ff 92       	push	r15
     b66:	0f 93       	push	r16
     b68:	1f 93       	push	r17
     b6a:	cf 93       	push	r28
     b6c:	df 93       	push	r29
	licznik = 0;
     b6e:	10 92 41 04 	sts	0x0441, r1
	
	ADMUX |= (1<<ADLAR);	//	lewe wyjustowanie wyniku konwersji ADC
     b72:	ec e7       	ldi	r30, 0x7C	; 124
     b74:	f0 e0       	ldi	r31, 0x00	; 0
     b76:	80 81       	ld	r24, Z
     b78:	80 62       	ori	r24, 0x20	; 32
     b7a:	80 83       	st	Z, r24
			i=0;
		}
		LCD_GoTo(i,1);
		LCD_WriteText("Nowy kod:");

		ADCSRA |= (1<<ADSC);			//	start konwersji
     b7c:	ca e7       	ldi	r28, 0x7A	; 122
     b7e:	d0 e0       	ldi	r29, 0x00	; 0
		while(ADCSRA &(1<<ADSC)) ;		//	czekanie na koniec konwersji
		licznik = (ADCH>>1)+1;						//	odczyt wyniku konwersji //	dodanie 1 jako wartosci minimalnej
     b80:	09 e7       	ldi	r16, 0x79	; 121
     b82:	10 e0       	ldi	r17, 0x00	; 0
		
		if (licznik>99)
		{
			licznik=99;		//	ograniczenie wartosci kodu
     b84:	0f 2e       	mov	r0, r31
     b86:	f3 e6       	ldi	r31, 0x63	; 99
     b88:	ef 2e       	mov	r14, r31
     b8a:	f0 2d       	mov	r31, r0
						while(ADCSRA &(1<<ADSC)) ;		//	czekanie na koniec konwersji
						licznik = (ADCH>>1)+1;						//	odczyt wyniku konwersji //	dodanie 1 jako wartosci minimalnej
					
						if (licznik>99)
						{
							licznik=99;		//	ograniczenie wartosci kodu
     b8c:	fe 2c       	mov	r15, r14
	
	ADMUX |= (1<<ADLAR);	//	lewe wyjustowanie wyniku konwersji ADC

	while(1)	
	{
		LCD_Clear();
     b8e:	0e 94 1d 01 	call	0x23a	; 0x23a <LCD_Clear>
		LCD_Home();
     b92:	0e 94 27 01 	call	0x24e	; 0x24e <LCD_Home>
		for (i=0;i<ilosc_kodow_bledow;i++)
     b96:	10 92 46 06 	sts	0x0646, r1
     b9a:	80 91 40 04 	lds	r24, 0x0440
     b9e:	81 11       	cpse	r24, r1
     ba0:	1c c0       	rjmp	.+56     	; 0xbda <Wprowadzenie_kodow+0x78>
     ba2:	70 c0       	rjmp	.+224    	; 0xc84 <Wprowadzenie_kodow+0x122>
		{
				
				if ((i+1)*3>16)
     ba4:	90 e0       	ldi	r25, 0x00	; 0
     ba6:	01 96       	adiw	r24, 0x01	; 1
     ba8:	9c 01       	movw	r18, r24
     baa:	22 0f       	add	r18, r18
     bac:	33 1f       	adc	r19, r19
     bae:	82 0f       	add	r24, r18
     bb0:	93 1f       	adc	r25, r19
     bb2:	41 97       	sbiw	r24, 0x11	; 17
     bb4:	94 f0       	brlt	.+36     	; 0xbda <Wprowadzenie_kodow+0x78>
     bb6:	2f ef       	ldi	r18, 0xFF	; 255
     bb8:	83 ec       	ldi	r24, 0xC3	; 195
     bba:	99 e0       	ldi	r25, 0x09	; 9
     bbc:	21 50       	subi	r18, 0x01	; 1
     bbe:	80 40       	sbci	r24, 0x00	; 0
     bc0:	90 40       	sbci	r25, 0x00	; 0
     bc2:	e1 f7       	brne	.-8      	; 0xbbc <Wprowadzenie_kodow+0x5a>
     bc4:	00 c0       	rjmp	.+0      	; 0xbc6 <Wprowadzenie_kodow+0x64>
     bc6:	00 00       	nop
				{
					_delay_ms(800);
					LCD_WriteCommand((HD44780_DISPLAY_CURSOR_SHIFT | HD44780_SHIFT_DISPLAY | HD44780_SHIFT_LEFT));
     bc8:	88 e1       	ldi	r24, 0x18	; 24
     bca:	0e 94 fe 00 	call	0x1fc	; 0x1fc <LCD_WriteCommand>
					LCD_WriteCommand((HD44780_DISPLAY_CURSOR_SHIFT | HD44780_SHIFT_DISPLAY | HD44780_SHIFT_LEFT));
     bce:	88 e1       	ldi	r24, 0x18	; 24
     bd0:	0e 94 fe 00 	call	0x1fc	; 0x1fc <LCD_WriteCommand>
					LCD_WriteCommand((HD44780_DISPLAY_CURSOR_SHIFT | HD44780_SHIFT_DISPLAY | HD44780_SHIFT_LEFT));
     bd4:	88 e1       	ldi	r24, 0x18	; 24
     bd6:	0e 94 fe 00 	call	0x1fc	; 0x1fc <LCD_WriteCommand>
				}
				
				if(kody_bledow[i]<10)
     bda:	e0 91 46 06 	lds	r30, 0x0646
     bde:	f0 e0       	ldi	r31, 0x00	; 0
     be0:	ed 59       	subi	r30, 0x9D	; 157
     be2:	f9 4f       	sbci	r31, 0xF9	; 249
     be4:	80 81       	ld	r24, Z
     be6:	8a 30       	cpi	r24, 0x0A	; 10
     be8:	20 f4       	brcc	.+8      	; 0xbf2 <Wprowadzenie_kodow+0x90>
				{
					LCD_WriteText(" ");
     bea:	89 e1       	ldi	r24, 0x19	; 25
     bec:	91 e0       	ldi	r25, 0x01	; 1
     bee:	0e 94 06 01 	call	0x20c	; 0x20c <LCD_WriteText>
				}
				LCD_WriteText(utoa(kody_bledow[i],string_16_znakow,10));
     bf2:	e0 91 46 06 	lds	r30, 0x0646
     bf6:	f0 e0       	ldi	r31, 0x00	; 0
     bf8:	ed 59       	subi	r30, 0x9D	; 157
     bfa:	f9 4f       	sbci	r31, 0xF9	; 249
     bfc:	80 81       	ld	r24, Z
    } else if (__radix < 2 || __radix > 36) {
	*__s = 0;
	return __s;
    } else {
	extern char *__utoa_ncheck (unsigned int, char *, unsigned char);
	return __utoa_ncheck (__val, __s, __radix);
     bfe:	4a e0       	ldi	r20, 0x0A	; 10
     c00:	67 e4       	ldi	r22, 0x47	; 71
     c02:	76 e0       	ldi	r23, 0x06	; 6
     c04:	90 e0       	ldi	r25, 0x00	; 0
     c06:	0e 94 49 0f 	call	0x1e92	; 0x1e92 <__utoa_ncheck>
     c0a:	0e 94 06 01 	call	0x20c	; 0x20c <LCD_WriteText>
				LCD_WriteText(" ");
     c0e:	89 e1       	ldi	r24, 0x19	; 25
     c10:	91 e0       	ldi	r25, 0x01	; 1
     c12:	0e 94 06 01 	call	0x20c	; 0x20c <LCD_WriteText>

	while(1)	
	{
		LCD_Clear();
		LCD_Home();
		for (i=0;i<ilosc_kodow_bledow;i++)
     c16:	80 91 46 06 	lds	r24, 0x0646
     c1a:	8f 5f       	subi	r24, 0xFF	; 255
     c1c:	80 93 46 06 	sts	0x0646, r24
     c20:	90 91 40 04 	lds	r25, 0x0440
     c24:	89 17       	cp	r24, r25
     c26:	08 f4       	brcc	.+2      	; 0xc2a <Wprowadzenie_kodow+0xc8>
     c28:	bd cf       	rjmp	.-134    	; 0xba4 <Wprowadzenie_kodow+0x42>
				}
				LCD_WriteText(utoa(kody_bledow[i],string_16_znakow,10));
				LCD_WriteText(" ");
		}
		
		if (ilosc_kodow_bledow>=MAX_ILOSC_KODOW)
     c2a:	9c 30       	cpi	r25, 0x0C	; 12
     c2c:	d0 f0       	brcs	.+52     	; 0xc62 <Wprowadzenie_kodow+0x100>
		{
			LCD_Clear();
     c2e:	0e 94 1d 01 	call	0x23a	; 0x23a <LCD_Clear>
			LCD_Home();
     c32:	0e 94 27 01 	call	0x24e	; 0x24e <LCD_Home>
			LCD_WriteText("Maksymalna      ");
     c36:	8e e9       	ldi	r24, 0x9E	; 158
     c38:	92 e0       	ldi	r25, 0x02	; 2
     c3a:	0e 94 06 01 	call	0x20c	; 0x20c <LCD_WriteText>
			LCD_GoTo(M_DRUGA_LINIA_P1);
     c3e:	61 e0       	ldi	r22, 0x01	; 1
     c40:	80 e0       	ldi	r24, 0x00	; 0
     c42:	0e 94 15 01 	call	0x22a	; 0x22a <LCD_GoTo>
			LCD_WriteText("ilosc kodow     ");
     c46:	8f ea       	ldi	r24, 0xAF	; 175
     c48:	92 e0       	ldi	r25, 0x02	; 2
     c4a:	0e 94 06 01 	call	0x20c	; 0x20c <LCD_WriteText>
     c4e:	ef ef       	ldi	r30, 0xFF	; 255
     c50:	fe e9       	ldi	r31, 0x9E	; 158
     c52:	24 e2       	ldi	r18, 0x24	; 36
     c54:	e1 50       	subi	r30, 0x01	; 1
     c56:	f0 40       	sbci	r31, 0x00	; 0
     c58:	20 40       	sbci	r18, 0x00	; 0
     c5a:	e1 f7       	brne	.-8      	; 0xc54 <Wprowadzenie_kodow+0xf2>
     c5c:	00 c0       	rjmp	.+0      	; 0xc5e <Wprowadzenie_kodow+0xfc>
     c5e:	00 00       	nop
			_delay_ms(3000);
			return M_CZY_DEKODOWAC_KODY;
     c60:	9a c0       	rjmp	.+308    	; 0xd96 <Wprowadzenie_kodow+0x234>
		}

		if (ilosc_kodow_bledow*3>16)
     c62:	29 2f       	mov	r18, r25
     c64:	30 e0       	ldi	r19, 0x00	; 0
     c66:	a9 01       	movw	r20, r18
     c68:	44 0f       	add	r20, r20
     c6a:	55 1f       	adc	r21, r21
     c6c:	24 0f       	add	r18, r20
     c6e:	35 1f       	adc	r19, r21
     c70:	21 31       	cpi	r18, 0x11	; 17
     c72:	31 05       	cpc	r19, r1
     c74:	3c f0       	brlt	.+14     	; 0xc84 <Wprowadzenie_kodow+0x122>
		{
			i=ilosc_kodow_bledow*3-15;
     c76:	89 2f       	mov	r24, r25
     c78:	88 0f       	add	r24, r24
     c7a:	98 0f       	add	r25, r24
     c7c:	9f 50       	subi	r25, 0x0F	; 15
     c7e:	90 93 46 06 	sts	0x0646, r25
     c82:	02 c0       	rjmp	.+4      	; 0xc88 <Wprowadzenie_kodow+0x126>
		}
		else
		{
			i=0;
     c84:	10 92 46 06 	sts	0x0646, r1
		}
		LCD_GoTo(i,1);
     c88:	61 e0       	ldi	r22, 0x01	; 1
     c8a:	80 91 46 06 	lds	r24, 0x0646
     c8e:	0e 94 15 01 	call	0x22a	; 0x22a <LCD_GoTo>
		LCD_WriteText("Nowy kod:");
     c92:	80 ec       	ldi	r24, 0xC0	; 192
     c94:	92 e0       	ldi	r25, 0x02	; 2
     c96:	0e 94 06 01 	call	0x20c	; 0x20c <LCD_WriteText>

		ADCSRA |= (1<<ADSC);			//	start konwersji
     c9a:	88 81       	ld	r24, Y
     c9c:	80 64       	ori	r24, 0x40	; 64
     c9e:	88 83       	st	Y, r24
		while(ADCSRA &(1<<ADSC)) ;		//	czekanie na koniec konwersji
     ca0:	88 81       	ld	r24, Y
     ca2:	86 fd       	sbrc	r24, 6
     ca4:	fd cf       	rjmp	.-6      	; 0xca0 <Wprowadzenie_kodow+0x13e>
		licznik = (ADCH>>1)+1;						//	odczyt wyniku konwersji //	dodanie 1 jako wartosci minimalnej
     ca6:	f8 01       	movw	r30, r16
     ca8:	80 81       	ld	r24, Z
     caa:	86 95       	lsr	r24
     cac:	8f 5f       	subi	r24, 0xFF	; 255
		
		if (licznik>99)
     cae:	84 36       	cpi	r24, 0x64	; 100
     cb0:	18 f4       	brcc	.+6      	; 0xcb8 <Wprowadzenie_kodow+0x156>
		LCD_GoTo(i,1);
		LCD_WriteText("Nowy kod:");

		ADCSRA |= (1<<ADSC);			//	start konwersji
		while(ADCSRA &(1<<ADSC)) ;		//	czekanie na koniec konwersji
		licznik = (ADCH>>1)+1;						//	odczyt wyniku konwersji //	dodanie 1 jako wartosci minimalnej
     cb2:	80 93 41 04 	sts	0x0441, r24
     cb6:	02 c0       	rjmp	.+4      	; 0xcbc <Wprowadzenie_kodow+0x15a>
		
		if (licznik>99)
		{
			licznik=99;		//	ograniczenie wartosci kodu
     cb8:	e0 92 41 04 	sts	0x0441, r14
		}
		
		//	wyswietlenie zmierzonej wartosci
		
		LCD_GoTo(i+13,1);
     cbc:	80 91 46 06 	lds	r24, 0x0646
     cc0:	61 e0       	ldi	r22, 0x01	; 1
     cc2:	83 5f       	subi	r24, 0xF3	; 243
     cc4:	0e 94 15 01 	call	0x22a	; 0x22a <LCD_GoTo>
		LCD_WriteText(utoa(licznik,string_16_znakow,10));
     cc8:	80 91 41 04 	lds	r24, 0x0441
     ccc:	4a e0       	ldi	r20, 0x0A	; 10
     cce:	67 e4       	ldi	r22, 0x47	; 71
     cd0:	76 e0       	ldi	r23, 0x06	; 6
     cd2:	90 e0       	ldi	r25, 0x00	; 0
     cd4:	0e 94 49 0f 	call	0x1e92	; 0x1e92 <__utoa_ncheck>
     cd8:	0e 94 06 01 	call	0x20c	; 0x20c <LCD_WriteText>
		LCD_WriteText("  ");
     cdc:	88 e1       	ldi	r24, 0x18	; 24
     cde:	91 e0       	ldi	r25, 0x01	; 1
     ce0:	0e 94 06 01 	call	0x20c	; 0x20c <LCD_WriteText>

		while(1)
		{
			if(!(BUTTON_PIN & (1<<BUTTON_GREEN)))
     ce4:	4e 99       	sbic	0x09, 6	; 9
     ce6:	30 c0       	rjmp	.+96     	; 0xd48 <Wprowadzenie_kodow+0x1e6>
     ce8:	ff e7       	ldi	r31, 0x7F	; 127
     cea:	28 e3       	ldi	r18, 0x38	; 56
     cec:	81 e0       	ldi	r24, 0x01	; 1
     cee:	f1 50       	subi	r31, 0x01	; 1
     cf0:	20 40       	sbci	r18, 0x00	; 0
     cf2:	80 40       	sbci	r24, 0x00	; 0
     cf4:	e1 f7       	brne	.-8      	; 0xcee <Wprowadzenie_kodow+0x18c>
     cf6:	00 c0       	rjmp	.+0      	; 0xcf8 <Wprowadzenie_kodow+0x196>
     cf8:	00 00       	nop
			{
				_delay_ms(CZAS_ZWLOKI_PRZYCISKOW_MS);
				if(!(BUTTON_PIN & (1<<BUTTON_GREEN)))
     cfa:	4e 99       	sbic	0x09, 6	; 9
     cfc:	25 c0       	rjmp	.+74     	; 0xd48 <Wprowadzenie_kodow+0x1e6>
				{
					
						ADCSRA |= (1<<ADSC);			//	start konwersji
     cfe:	88 81       	ld	r24, Y
     d00:	80 64       	ori	r24, 0x40	; 64
     d02:	88 83       	st	Y, r24
						while(ADCSRA &(1<<ADSC)) ;		//	czekanie na koniec konwersji
     d04:	88 81       	ld	r24, Y
     d06:	86 fd       	sbrc	r24, 6
     d08:	fd cf       	rjmp	.-6      	; 0xd04 <Wprowadzenie_kodow+0x1a2>
						licznik = (ADCH>>1)+1;						//	odczyt wyniku konwersji //	dodanie 1 jako wartosci minimalnej
     d0a:	f8 01       	movw	r30, r16
     d0c:	80 81       	ld	r24, Z
     d0e:	86 95       	lsr	r24
     d10:	8f 5f       	subi	r24, 0xFF	; 255
					
						if (licznik>99)
     d12:	84 36       	cpi	r24, 0x64	; 100
     d14:	18 f4       	brcc	.+6      	; 0xd1c <Wprowadzenie_kodow+0x1ba>
				if(!(BUTTON_PIN & (1<<BUTTON_GREEN)))
				{
					
						ADCSRA |= (1<<ADSC);			//	start konwersji
						while(ADCSRA &(1<<ADSC)) ;		//	czekanie na koniec konwersji
						licznik = (ADCH>>1)+1;						//	odczyt wyniku konwersji //	dodanie 1 jako wartosci minimalnej
     d16:	80 93 41 04 	sts	0x0441, r24
     d1a:	02 c0       	rjmp	.+4      	; 0xd20 <Wprowadzenie_kodow+0x1be>
					
						if (licznik>99)
						{
							licznik=99;		//	ograniczenie wartosci kodu
     d1c:	f0 92 41 04 	sts	0x0441, r15
						}
						
						//	wyswietlenie zmierzonej wartosci
						
						LCD_GoTo(i+13,1);
     d20:	80 91 46 06 	lds	r24, 0x0646
     d24:	61 e0       	ldi	r22, 0x01	; 1
     d26:	83 5f       	subi	r24, 0xF3	; 243
     d28:	0e 94 15 01 	call	0x22a	; 0x22a <LCD_GoTo>
						LCD_WriteText(utoa(licznik,string_16_znakow,10));
     d2c:	80 91 41 04 	lds	r24, 0x0441
     d30:	4a e0       	ldi	r20, 0x0A	; 10
     d32:	67 e4       	ldi	r22, 0x47	; 71
     d34:	76 e0       	ldi	r23, 0x06	; 6
     d36:	90 e0       	ldi	r25, 0x00	; 0
     d38:	0e 94 49 0f 	call	0x1e92	; 0x1e92 <__utoa_ncheck>
     d3c:	0e 94 06 01 	call	0x20c	; 0x20c <LCD_WriteText>
						LCD_WriteText("  ");
     d40:	88 e1       	ldi	r24, 0x18	; 24
     d42:	91 e0       	ldi	r25, 0x01	; 1
     d44:	0e 94 06 01 	call	0x20c	; 0x20c <LCD_WriteText>
				}
			}
		
		
			// sprawdzenie niebieskiego przycisku
			if(!(BUTTON_PIN & (1<<BUTTON_BLUE)))
     d48:	4d 99       	sbic	0x09, 5	; 9
     d4a:	18 c0       	rjmp	.+48     	; 0xd7c <Wprowadzenie_kodow+0x21a>
     d4c:	ff e7       	ldi	r31, 0x7F	; 127
     d4e:	28 e3       	ldi	r18, 0x38	; 56
     d50:	81 e0       	ldi	r24, 0x01	; 1
     d52:	f1 50       	subi	r31, 0x01	; 1
     d54:	20 40       	sbci	r18, 0x00	; 0
     d56:	80 40       	sbci	r24, 0x00	; 0
     d58:	e1 f7       	brne	.-8      	; 0xd52 <Wprowadzenie_kodow+0x1f0>
     d5a:	00 c0       	rjmp	.+0      	; 0xd5c <Wprowadzenie_kodow+0x1fa>
     d5c:	00 00       	nop
			{
				_delay_ms(CZAS_ZWLOKI_PRZYCISKOW_MS);
				if(!(BUTTON_PIN & (1<<BUTTON_BLUE)))
     d5e:	4d 99       	sbic	0x09, 5	; 9
     d60:	0d c0       	rjmp	.+26     	; 0xd7c <Wprowadzenie_kodow+0x21a>
				{
					kody_bledow[ilosc_kodow_bledow] = licznik;
     d62:	80 91 40 04 	lds	r24, 0x0440
     d66:	e8 2f       	mov	r30, r24
     d68:	f0 e0       	ldi	r31, 0x00	; 0
     d6a:	ed 59       	subi	r30, 0x9D	; 157
     d6c:	f9 4f       	sbci	r31, 0xF9	; 249
     d6e:	90 91 41 04 	lds	r25, 0x0441
     d72:	90 83       	st	Z, r25
					ilosc_kodow_bledow=ilosc_kodow_bledow+1;
     d74:	8f 5f       	subi	r24, 0xFF	; 255
     d76:	80 93 40 04 	sts	0x0440, r24
					
				}
			}
			
		}
	}
     d7a:	09 cf       	rjmp	.-494    	; 0xb8e <Wprowadzenie_kodow+0x2c>
					break;						//	powrót do du¿ej pêtli
				}
			}

			// sprawdzenie czerwonego przycisku
			if(!(BUTTON_PIN & (1<<BUTTON_RED)))
     d7c:	4f 99       	sbic	0x09, 7	; 9
     d7e:	b2 cf       	rjmp	.-156    	; 0xce4 <Wprowadzenie_kodow+0x182>
     d80:	9f e7       	ldi	r25, 0x7F	; 127
     d82:	e8 e3       	ldi	r30, 0x38	; 56
     d84:	f1 e0       	ldi	r31, 0x01	; 1
     d86:	91 50       	subi	r25, 0x01	; 1
     d88:	e0 40       	sbci	r30, 0x00	; 0
     d8a:	f0 40       	sbci	r31, 0x00	; 0
     d8c:	e1 f7       	brne	.-8      	; 0xd86 <Wprowadzenie_kodow+0x224>
     d8e:	00 c0       	rjmp	.+0      	; 0xd90 <Wprowadzenie_kodow+0x22e>
     d90:	00 00       	nop
			{
				_delay_ms(CZAS_ZWLOKI_PRZYCISKOW_MS);
				if(!(BUTTON_PIN & (1<<BUTTON_RED)))
     d92:	4f 99       	sbic	0x09, 7	; 9
     d94:	a7 cf       	rjmp	.-178    	; 0xce4 <Wprowadzenie_kodow+0x182>
			}
			
		}
	}
	return M_CZY_DEKODOWAC_KODY;
}
     d96:	84 e0       	ldi	r24, 0x04	; 4
     d98:	df 91       	pop	r29
     d9a:	cf 91       	pop	r28
     d9c:	1f 91       	pop	r17
     d9e:	0f 91       	pop	r16
     da0:	ff 90       	pop	r15
     da2:	ef 90       	pop	r14
     da4:	08 95       	ret

00000da6 <Odczyt_kodow>:
#ifdef TEST_n_odczyt_kodow
uint8_t Odczyt_kodow(void){return M_CZY_DEKODOWAC_KODY;}	//kod zastêpczy do szybkiego wgrywania

#else
uint8_t Odczyt_kodow(void)
{	
     da6:	cf 93       	push	r28
     da8:	e3 e6       	ldi	r30, 0x63	; 99
     daa:	f6 e0       	ldi	r31, 0x06	; 6
     dac:	8f e6       	ldi	r24, 0x6F	; 111
     dae:	96 e0       	ldi	r25, 0x06	; 6
	//	zerowanie kodow bledow
	for (i=0;i<MAX_ILOSC_KODOW;i++)
	{
		kody_bledow[i]=0;
     db0:	11 92       	st	Z+, r1

#else
uint8_t Odczyt_kodow(void)
{	
	//	zerowanie kodow bledow
	for (i=0;i<MAX_ILOSC_KODOW;i++)
     db2:	e8 17       	cp	r30, r24
     db4:	f9 07       	cpc	r31, r25
     db6:	e1 f7       	brne	.-8      	; 0xdb0 <Odczyt_kodow+0xa>
     db8:	8c e0       	ldi	r24, 0x0C	; 12
     dba:	80 93 46 06 	sts	0x0646, r24
	{
		kody_bledow[i]=0;
	}
	Ustaw_przerwania_zew_INT();
     dbe:	0e 94 e6 0d 	call	0x1bcc	; 0x1bcc <Ustaw_przerwania_zew_INT>
	Ustaw_TIMER1((uint16_t)(((uint16_t)10)*((uint16_t)3600)));	//	dla uzyskania sekund pomno¿yc przez 3600
     dc2:	80 ea       	ldi	r24, 0xA0	; 160
     dc4:	9c e8       	ldi	r25, 0x8C	; 140
     dc6:	0e 94 dc 0d 	call	0x1bb8	; 0x1bb8 <Ustaw_TIMER1>
	licznik = 0;			//	informacja o opuszczeniu sygnalu startu
     dca:	10 92 41 04 	sts	0x0441, r1
	ilosc_kodow_bledow = 0;
     dce:	10 92 40 04 	sts	0x0440, r1
	TCNT1 = 0;				//	wyzerowanie licznika timera1
     dd2:	10 92 85 00 	sts	0x0085, r1
     dd6:	10 92 84 00 	sts	0x0084, r1

	//	wybranie trybu testu
	i=0;
     dda:	10 92 46 06 	sts	0x0646, r1
	LCD_Clear();
     dde:	0e 94 1d 01 	call	0x23a	; 0x23a <LCD_Clear>
	LCD_Home();
     de2:	0e 94 27 01 	call	0x24e	; 0x24e <LCD_Home>
	LCD_WriteText("Który tryb testu?    ");                      //	wyœwietlanie pierwszego wiersza
     de6:	8a ec       	ldi	r24, 0xCA	; 202
     de8:	92 e0       	ldi	r25, 0x02	; 2
     dea:	0e 94 06 01 	call	0x20c	; 0x20c <LCD_WriteText>
	LCD_GoTo(M_DRUGA_LINIA_P1);								//	przejscie do 2 lini
     dee:	61 e0       	ldi	r22, 0x01	; 1
     df0:	80 e0       	ldi	r24, 0x00	; 0
     df2:	0e 94 15 01 	call	0x22a	; 0x22a <LCD_GoTo>
	LCD_WriteText("Zielony = KOEO  Niebieski = KOER  ");                      // wyœwietlanie drugiego wiersza
     df6:	80 ee       	ldi	r24, 0xE0	; 224
     df8:	92 e0       	ldi	r25, 0x02	; 2
     dfa:	0e 94 06 01 	call	0x20c	; 0x20c <LCD_WriteText>
     dfe:	2f ef       	ldi	r18, 0xFF	; 255
     e00:	84 e3       	ldi	r24, 0x34	; 52
     e02:	9c e0       	ldi	r25, 0x0C	; 12
     e04:	21 50       	subi	r18, 0x01	; 1
     e06:	80 40       	sbci	r24, 0x00	; 0
     e08:	90 40       	sbci	r25, 0x00	; 0
     e0a:	e1 f7       	brne	.-8      	; 0xe04 <Odczyt_kodow+0x5e>
     e0c:	00 c0       	rjmp	.+0      	; 0xe0e <Odczyt_kodow+0x68>
     e0e:	00 00       	nop
	_delay_ms(1000);
	while(i==0)
     e10:	c0 91 46 06 	lds	r28, 0x0646
     e14:	c1 11       	cpse	r28, r1
     e16:	3f c0       	rjmp	.+126    	; 0xe96 <Odczyt_kodow+0xf0>
	{
		if(!(BUTTON_PIN & (1<<BUTTON_GREEN)))
     e18:	4e 99       	sbic	0x09, 6	; 9
     e1a:	0f c0       	rjmp	.+30     	; 0xe3a <Odczyt_kodow+0x94>
     e1c:	2f e7       	ldi	r18, 0x7F	; 127
     e1e:	88 e3       	ldi	r24, 0x38	; 56
     e20:	91 e0       	ldi	r25, 0x01	; 1
     e22:	21 50       	subi	r18, 0x01	; 1
     e24:	80 40       	sbci	r24, 0x00	; 0
     e26:	90 40       	sbci	r25, 0x00	; 0
     e28:	e1 f7       	brne	.-8      	; 0xe22 <Odczyt_kodow+0x7c>
     e2a:	00 c0       	rjmp	.+0      	; 0xe2c <Odczyt_kodow+0x86>
     e2c:	00 00       	nop
		{
			_delay_ms(CZAS_ZWLOKI_PRZYCISKOW_MS);
			if(!(BUTTON_PIN & (1<<BUTTON_GREEN)))
     e2e:	4e 99       	sbic	0x09, 6	; 9
     e30:	04 c0       	rjmp	.+8      	; 0xe3a <Odczyt_kodow+0x94>
			{
				i=1;
     e32:	81 e0       	ldi	r24, 0x01	; 1
     e34:	80 93 46 06 	sts	0x0646, r24
				break;
     e38:	2e c0       	rjmp	.+92     	; 0xe96 <Odczyt_kodow+0xf0>
			}
		}
		

		if(!(BUTTON_PIN & (1<<BUTTON_BLUE)))
     e3a:	4d 99       	sbic	0x09, 5	; 9
     e3c:	0f c0       	rjmp	.+30     	; 0xe5c <Odczyt_kodow+0xb6>
     e3e:	2f e7       	ldi	r18, 0x7F	; 127
     e40:	88 e3       	ldi	r24, 0x38	; 56
     e42:	91 e0       	ldi	r25, 0x01	; 1
     e44:	21 50       	subi	r18, 0x01	; 1
     e46:	80 40       	sbci	r24, 0x00	; 0
     e48:	90 40       	sbci	r25, 0x00	; 0
     e4a:	e1 f7       	brne	.-8      	; 0xe44 <Odczyt_kodow+0x9e>
     e4c:	00 c0       	rjmp	.+0      	; 0xe4e <Odczyt_kodow+0xa8>
     e4e:	00 00       	nop
		{
			_delay_ms(CZAS_ZWLOKI_PRZYCISKOW_MS);
			if(!(BUTTON_PIN & (1<<BUTTON_BLUE)))
     e50:	4d 99       	sbic	0x09, 5	; 9
     e52:	04 c0       	rjmp	.+8      	; 0xe5c <Odczyt_kodow+0xb6>
			{
				i=2;
     e54:	82 e0       	ldi	r24, 0x02	; 2
     e56:	80 93 46 06 	sts	0x0646, r24
				break;
     e5a:	1d c0       	rjmp	.+58     	; 0xe96 <Odczyt_kodow+0xf0>
			}
		}

		if(!(BUTTON_PIN & (1<<BUTTON_RED)))
     e5c:	4f 99       	sbic	0x09, 7	; 9
     e5e:	0b c0       	rjmp	.+22     	; 0xe76 <Odczyt_kodow+0xd0>
     e60:	2f e7       	ldi	r18, 0x7F	; 127
     e62:	88 e3       	ldi	r24, 0x38	; 56
     e64:	91 e0       	ldi	r25, 0x01	; 1
     e66:	21 50       	subi	r18, 0x01	; 1
     e68:	80 40       	sbci	r24, 0x00	; 0
     e6a:	90 40       	sbci	r25, 0x00	; 0
     e6c:	e1 f7       	brne	.-8      	; 0xe66 <Odczyt_kodow+0xc0>
     e6e:	00 c0       	rjmp	.+0      	; 0xe70 <Odczyt_kodow+0xca>
     e70:	00 00       	nop
		{
			_delay_ms(CZAS_ZWLOKI_PRZYCISKOW_MS);
			if(!(BUTTON_PIN & (1<<BUTTON_RED)))
     e72:	4f 9b       	sbis	0x09, 7	; 9
     e74:	d2 c1       	rjmp	.+932    	; 0x121a <Odczyt_kodow+0x474>
			{
				return M_WYBOR_FUNKCJI;
			}
		}

		LCD_WriteCommand(HD44780_DISPLAY_CURSOR_SHIFT | HD44780_SHIFT_DISPLAY | HD44780_SHIFT_LEFT);
     e76:	88 e1       	ldi	r24, 0x18	; 24
     e78:	0e 94 fe 00 	call	0x1fc	; 0x1fc <LCD_WriteCommand>
     e7c:	2f e7       	ldi	r18, 0x7F	; 127
     e7e:	8a e1       	ldi	r24, 0x1A	; 26
     e80:	96 e0       	ldi	r25, 0x06	; 6
     e82:	21 50       	subi	r18, 0x01	; 1
     e84:	80 40       	sbci	r24, 0x00	; 0
     e86:	90 40       	sbci	r25, 0x00	; 0
     e88:	e1 f7       	brne	.-8      	; 0xe82 <Odczyt_kodow+0xdc>
     e8a:	00 c0       	rjmp	.+0      	; 0xe8c <Odczyt_kodow+0xe6>
     e8c:	00 00       	nop
	LCD_Home();
	LCD_WriteText("Który tryb testu?    ");                      //	wyœwietlanie pierwszego wiersza
	LCD_GoTo(M_DRUGA_LINIA_P1);								//	przejscie do 2 lini
	LCD_WriteText("Zielony = KOEO  Niebieski = KOER  ");                      // wyœwietlanie drugiego wiersza
	_delay_ms(1000);
	while(i==0)
     e8e:	90 91 46 06 	lds	r25, 0x0646
     e92:	99 23       	and	r25, r25
     e94:	09 f2       	breq	.-126    	; 0xe18 <Odczyt_kodow+0x72>

	
	
	
	
	SIGNAL_ENABLE_PORT |= (1<<SIGNAL_ENABLE);	//	sygna³ dla ECU o chêci odczytu kodów
     e96:	28 9a       	sbi	0x05, 0	; 5
	
	if (i==2)	  //	tryb KOER
     e98:	80 91 46 06 	lds	r24, 0x0646
     e9c:	82 30       	cpi	r24, 0x02	; 2
     e9e:	09 f0       	breq	.+2      	; 0xea2 <Odczyt_kodow+0xfc>
     ea0:	aa c0       	rjmp	.+340    	; 0xff6 <Odczyt_kodow+0x250>
	{
		LCD_Clear();
     ea2:	0e 94 1d 01 	call	0x23a	; 0x23a <LCD_Clear>
		LCD_Home();
     ea6:	0e 94 27 01 	call	0x24e	; 0x24e <LCD_Home>
		LCD_WriteText("Wlacz zaplon pojaz.");                      //	wyœwietlanie pierwszego wiersza
     eaa:	83 e0       	ldi	r24, 0x03	; 3
     eac:	93 e0       	ldi	r25, 0x03	; 3
     eae:	0e 94 06 01 	call	0x20c	; 0x20c <LCD_WriteText>
		LCD_GoTo(M_DRUGA_LINIA_P1);								//	przejscie do 2 lini
     eb2:	61 e0       	ldi	r22, 0x01	; 1
     eb4:	80 e0       	ldi	r24, 0x00	; 0
     eb6:	0e 94 15 01 	call	0x22a	; 0x22a <LCD_GoTo>
		LCD_WriteText("Czekaj na  \"KONIEC\"");                   // wyœwietlanie drugiego wiersza
     eba:	87 e1       	ldi	r24, 0x17	; 23
     ebc:	93 e0       	ldi	r25, 0x03	; 3
     ebe:	0e 94 06 01 	call	0x20c	; 0x20c <LCD_WriteText>
		while(licznik==0)
     ec2:	83 c0       	rjmp	.+262    	; 0xfca <Odczyt_kodow+0x224>
		{
			
			LCD_Clear();
     ec4:	0e 94 1d 01 	call	0x23a	; 0x23a <LCD_Clear>
			LCD_Home();
     ec8:	0e 94 27 01 	call	0x24e	; 0x24e <LCD_Home>
			LCD_WriteText("1. Wlacz zaplon pojazdu.  ");
     ecc:	8b e2       	ldi	r24, 0x2B	; 43
     ece:	93 e0       	ldi	r25, 0x03	; 3
     ed0:	0e 94 06 01 	call	0x20c	; 0x20c <LCD_WriteText>
			LCD_GoTo(M_DRUGA_LINIA_P1);
     ed4:	61 e0       	ldi	r22, 0x01	; 1
     ed6:	80 e0       	ldi	r24, 0x00	; 0
     ed8:	0e 94 15 01 	call	0x22a	; 0x22a <LCD_GoTo>
			LCD_WriteText("2. Przeczekaj kody KOEO.  ");
     edc:	86 e4       	ldi	r24, 0x46	; 70
     ede:	93 e0       	ldi	r25, 0x03	; 3
     ee0:	0e 94 06 01 	call	0x20c	; 0x20c <LCD_WriteText>
     ee4:	2f ef       	ldi	r18, 0xFF	; 255
     ee6:	89 e6       	ldi	r24, 0x69	; 105
     ee8:	98 e1       	ldi	r25, 0x18	; 24
     eea:	21 50       	subi	r18, 0x01	; 1
     eec:	80 40       	sbci	r24, 0x00	; 0
     eee:	90 40       	sbci	r25, 0x00	; 0
     ef0:	e1 f7       	brne	.-8      	; 0xeea <Odczyt_kodow+0x144>
     ef2:	00 c0       	rjmp	.+0      	; 0xef4 <Odczyt_kodow+0x14e>
     ef4:	00 00       	nop
			_delay_ms(2000);
			
			for(i=0;i<10;i++)
     ef6:	10 92 46 06 	sts	0x0646, r1
			{
				LCD_WriteCommand((HD44780_DISPLAY_CURSOR_SHIFT | HD44780_SHIFT_DISPLAY | HD44780_SHIFT_LEFT));
     efa:	88 e1       	ldi	r24, 0x18	; 24
     efc:	0e 94 fe 00 	call	0x1fc	; 0x1fc <LCD_WriteCommand>
     f00:	2f ef       	ldi	r18, 0xFF	; 255
     f02:	83 ec       	ldi	r24, 0xC3	; 195
     f04:	99 e0       	ldi	r25, 0x09	; 9
     f06:	21 50       	subi	r18, 0x01	; 1
     f08:	80 40       	sbci	r24, 0x00	; 0
     f0a:	90 40       	sbci	r25, 0x00	; 0
     f0c:	e1 f7       	brne	.-8      	; 0xf06 <Odczyt_kodow+0x160>
     f0e:	00 c0       	rjmp	.+0      	; 0xf10 <Odczyt_kodow+0x16a>
     f10:	00 00       	nop
				_delay_ms(800);
				if(!(BUTTON_PIN & (1<<BUTTON_BLUE)))
     f12:	4d 99       	sbic	0x09, 5	; 9
     f14:	0f c0       	rjmp	.+30     	; 0xf34 <Odczyt_kodow+0x18e>
     f16:	2f e7       	ldi	r18, 0x7F	; 127
     f18:	88 e3       	ldi	r24, 0x38	; 56
     f1a:	91 e0       	ldi	r25, 0x01	; 1
     f1c:	21 50       	subi	r18, 0x01	; 1
     f1e:	80 40       	sbci	r24, 0x00	; 0
     f20:	90 40       	sbci	r25, 0x00	; 0
     f22:	e1 f7       	brne	.-8      	; 0xf1c <Odczyt_kodow+0x176>
     f24:	00 c0       	rjmp	.+0      	; 0xf26 <Odczyt_kodow+0x180>
     f26:	00 00       	nop
				{
					_delay_ms(CZAS_ZWLOKI_PRZYCISKOW_MS);
					if(!(BUTTON_PIN & (1<<BUTTON_BLUE)))
     f28:	4d 99       	sbic	0x09, 5	; 9
     f2a:	04 c0       	rjmp	.+8      	; 0xf34 <Odczyt_kodow+0x18e>
					{
						licznik =1;
     f2c:	81 e0       	ldi	r24, 0x01	; 1
     f2e:	80 93 41 04 	sts	0x0441, r24
     f32:	50 c0       	rjmp	.+160    	; 0xfd4 <Odczyt_kodow+0x22e>
			LCD_WriteText("1. Wlacz zaplon pojazdu.  ");
			LCD_GoTo(M_DRUGA_LINIA_P1);
			LCD_WriteText("2. Przeczekaj kody KOEO.  ");
			_delay_ms(2000);
			
			for(i=0;i<10;i++)
     f34:	80 91 46 06 	lds	r24, 0x0646
     f38:	8f 5f       	subi	r24, 0xFF	; 255
     f3a:	80 93 46 06 	sts	0x0646, r24
     f3e:	8a 30       	cpi	r24, 0x0A	; 10
     f40:	e0 f2       	brcs	.-72     	; 0xefa <Odczyt_kodow+0x154>
						licznik =1;
						break;
					}
				}
			}
			if (licznik==1)
     f42:	80 91 41 04 	lds	r24, 0x0441
     f46:	81 30       	cpi	r24, 0x01	; 1
     f48:	09 f4       	brne	.+2      	; 0xf4c <Odczyt_kodow+0x1a6>
     f4a:	44 c0       	rjmp	.+136    	; 0xfd4 <Odczyt_kodow+0x22e>
			{
				break;
			}
			LCD_Clear();
     f4c:	0e 94 1d 01 	call	0x23a	; 0x23a <LCD_Clear>
			LCD_Home();
     f50:	0e 94 27 01 	call	0x24e	; 0x24e <LCD_Home>
			LCD_WriteText("3. Wcisnij niebieski przycisk.");
     f54:	81 e6       	ldi	r24, 0x61	; 97
     f56:	93 e0       	ldi	r25, 0x03	; 3
     f58:	0e 94 06 01 	call	0x20c	; 0x20c <LCD_WriteText>
			LCD_GoTo(M_DRUGA_LINIA_P1);
     f5c:	61 e0       	ldi	r22, 0x01	; 1
     f5e:	80 e0       	ldi	r24, 0x00	; 0
     f60:	0e 94 15 01 	call	0x22a	; 0x22a <LCD_GoTo>
			LCD_WriteText("4. Uruchom silnik i czekaj na  \"KONIEC\" ");
     f64:	80 e8       	ldi	r24, 0x80	; 128
     f66:	93 e0       	ldi	r25, 0x03	; 3
     f68:	0e 94 06 01 	call	0x20c	; 0x20c <LCD_WriteText>
     f6c:	2f ef       	ldi	r18, 0xFF	; 255
     f6e:	89 e6       	ldi	r24, 0x69	; 105
     f70:	98 e1       	ldi	r25, 0x18	; 24
     f72:	21 50       	subi	r18, 0x01	; 1
     f74:	80 40       	sbci	r24, 0x00	; 0
     f76:	90 40       	sbci	r25, 0x00	; 0
     f78:	e1 f7       	brne	.-8      	; 0xf72 <Odczyt_kodow+0x1cc>
     f7a:	00 c0       	rjmp	.+0      	; 0xf7c <Odczyt_kodow+0x1d6>
     f7c:	00 00       	nop
			_delay_ms(2000);

			for(i=0;i<24;i++)
     f7e:	10 92 46 06 	sts	0x0646, r1
			{
				LCD_WriteCommand(HD44780_DISPLAY_CURSOR_SHIFT | HD44780_SHIFT_DISPLAY | HD44780_SHIFT_LEFT);
     f82:	88 e1       	ldi	r24, 0x18	; 24
     f84:	0e 94 fe 00 	call	0x1fc	; 0x1fc <LCD_WriteCommand>
     f88:	2f ef       	ldi	r18, 0xFF	; 255
     f8a:	83 ec       	ldi	r24, 0xC3	; 195
     f8c:	99 e0       	ldi	r25, 0x09	; 9
     f8e:	21 50       	subi	r18, 0x01	; 1
     f90:	80 40       	sbci	r24, 0x00	; 0
     f92:	90 40       	sbci	r25, 0x00	; 0
     f94:	e1 f7       	brne	.-8      	; 0xf8e <Odczyt_kodow+0x1e8>
     f96:	00 c0       	rjmp	.+0      	; 0xf98 <Odczyt_kodow+0x1f2>
     f98:	00 00       	nop
				_delay_ms(800);
			
				if(!(BUTTON_PIN & (1<<BUTTON_BLUE)))
     f9a:	4d 99       	sbic	0x09, 5	; 9
     f9c:	0f c0       	rjmp	.+30     	; 0xfbc <Odczyt_kodow+0x216>
     f9e:	2f e7       	ldi	r18, 0x7F	; 127
     fa0:	88 e3       	ldi	r24, 0x38	; 56
     fa2:	91 e0       	ldi	r25, 0x01	; 1
     fa4:	21 50       	subi	r18, 0x01	; 1
     fa6:	80 40       	sbci	r24, 0x00	; 0
     fa8:	90 40       	sbci	r25, 0x00	; 0
     faa:	e1 f7       	brne	.-8      	; 0xfa4 <Odczyt_kodow+0x1fe>
     fac:	00 c0       	rjmp	.+0      	; 0xfae <Odczyt_kodow+0x208>
     fae:	00 00       	nop
				{
					_delay_ms(CZAS_ZWLOKI_PRZYCISKOW_MS);
					if(!(BUTTON_PIN & (1<<BUTTON_BLUE)))
     fb0:	4d 99       	sbic	0x09, 5	; 9
     fb2:	04 c0       	rjmp	.+8      	; 0xfbc <Odczyt_kodow+0x216>
					{
						licznik =1;
     fb4:	81 e0       	ldi	r24, 0x01	; 1
     fb6:	80 93 41 04 	sts	0x0441, r24
						break;
     fba:	07 c0       	rjmp	.+14     	; 0xfca <Odczyt_kodow+0x224>
			LCD_WriteText("3. Wcisnij niebieski przycisk.");
			LCD_GoTo(M_DRUGA_LINIA_P1);
			LCD_WriteText("4. Uruchom silnik i czekaj na  \"KONIEC\" ");
			_delay_ms(2000);

			for(i=0;i<24;i++)
     fbc:	80 91 46 06 	lds	r24, 0x0646
     fc0:	8f 5f       	subi	r24, 0xFF	; 255
     fc2:	80 93 46 06 	sts	0x0646, r24
     fc6:	88 31       	cpi	r24, 0x18	; 24
     fc8:	e0 f2       	brcs	.-72     	; 0xf82 <Odczyt_kodow+0x1dc>
		LCD_Clear();
		LCD_Home();
		LCD_WriteText("Wlacz zaplon pojaz.");                      //	wyœwietlanie pierwszego wiersza
		LCD_GoTo(M_DRUGA_LINIA_P1);								//	przejscie do 2 lini
		LCD_WriteText("Czekaj na  \"KONIEC\"");                   // wyœwietlanie drugiego wiersza
		while(licznik==0)
     fca:	80 91 41 04 	lds	r24, 0x0441
     fce:	88 23       	and	r24, r24
     fd0:	09 f4       	brne	.+2      	; 0xfd4 <Odczyt_kodow+0x22e>
     fd2:	78 cf       	rjmp	.-272    	; 0xec4 <Odczyt_kodow+0x11e>
						break;
					}
				}
			}
		}
		LCD_Clear();
     fd4:	0e 94 1d 01 	call	0x23a	; 0x23a <LCD_Clear>
		LCD_Home();
     fd8:	0e 94 27 01 	call	0x24e	; 0x24e <LCD_Home>
		LCD_WriteText("Uruchom silnik. ");                      //	wyœwietlanie pierwszego wiersza
     fdc:	89 ea       	ldi	r24, 0xA9	; 169
     fde:	93 e0       	ldi	r25, 0x03	; 3
     fe0:	0e 94 06 01 	call	0x20c	; 0x20c <LCD_WriteText>
		LCD_GoTo(M_DRUGA_LINIA_P1);								//	przejscie do 2 lini
     fe4:	61 e0       	ldi	r22, 0x01	; 1
     fe6:	80 e0       	ldi	r24, 0x00	; 0
     fe8:	0e 94 15 01 	call	0x22a	; 0x22a <LCD_GoTo>
		LCD_WriteText("Czekaj na  \"KONIEC\"");                   // wyœwietlanie drugiego wiersza
     fec:	87 e1       	ldi	r24, 0x17	; 23
     fee:	93 e0       	ldi	r25, 0x03	; 3
     ff0:	0e 94 06 01 	call	0x20c	; 0x20c <LCD_WriteText>
     ff4:	25 c0       	rjmp	.+74     	; 0x1040 <Odczyt_kodow+0x29a>
	} 
	else		//	tryb KOEO
	{
		LCD_Clear();
     ff6:	0e 94 1d 01 	call	0x23a	; 0x23a <LCD_Clear>
		LCD_Home();
     ffa:	0e 94 27 01 	call	0x24e	; 0x24e <LCD_Home>
		LCD_WriteText("Wlacz zaplon pojaz.");                      //	wyœwietlanie pierwszego wiersza
     ffe:	83 e0       	ldi	r24, 0x03	; 3
    1000:	93 e0       	ldi	r25, 0x03	; 3
    1002:	0e 94 06 01 	call	0x20c	; 0x20c <LCD_WriteText>
		LCD_GoTo(M_DRUGA_LINIA_P1);								//	przejscie do 2 lini
    1006:	61 e0       	ldi	r22, 0x01	; 1
    1008:	80 e0       	ldi	r24, 0x00	; 0
    100a:	0e 94 15 01 	call	0x22a	; 0x22a <LCD_GoTo>
		LCD_WriteText("Czekaj na  \"KONIEC\"");                   // wyœwietlanie drugiego wiersza
    100e:	87 e1       	ldi	r24, 0x17	; 23
    1010:	93 e0       	ldi	r25, 0x03	; 3
    1012:	0e 94 06 01 	call	0x20c	; 0x20c <LCD_WriteText>
		for(i=0;i<4;i++)
    1016:	10 92 46 06 	sts	0x0646, r1
		{
			LCD_WriteCommand(HD44780_DISPLAY_CURSOR_SHIFT | HD44780_SHIFT_DISPLAY | HD44780_SHIFT_LEFT);
    101a:	88 e1       	ldi	r24, 0x18	; 24
    101c:	0e 94 fe 00 	call	0x1fc	; 0x1fc <LCD_WriteCommand>
    1020:	2f ef       	ldi	r18, 0xFF	; 255
    1022:	83 ec       	ldi	r24, 0xC3	; 195
    1024:	99 e0       	ldi	r25, 0x09	; 9
    1026:	21 50       	subi	r18, 0x01	; 1
    1028:	80 40       	sbci	r24, 0x00	; 0
    102a:	90 40       	sbci	r25, 0x00	; 0
    102c:	e1 f7       	brne	.-8      	; 0x1026 <Odczyt_kodow+0x280>
    102e:	00 c0       	rjmp	.+0      	; 0x1030 <Odczyt_kodow+0x28a>
    1030:	00 00       	nop
		LCD_Clear();
		LCD_Home();
		LCD_WriteText("Wlacz zaplon pojaz.");                      //	wyœwietlanie pierwszego wiersza
		LCD_GoTo(M_DRUGA_LINIA_P1);								//	przejscie do 2 lini
		LCD_WriteText("Czekaj na  \"KONIEC\"");                   // wyœwietlanie drugiego wiersza
		for(i=0;i<4;i++)
    1032:	80 91 46 06 	lds	r24, 0x0646
    1036:	8f 5f       	subi	r24, 0xFF	; 255
    1038:	80 93 46 06 	sts	0x0646, r24
    103c:	84 30       	cpi	r24, 0x04	; 4
    103e:	68 f3       	brcs	.-38     	; 0x101a <Odczyt_kodow+0x274>
			LCD_WriteCommand(HD44780_DISPLAY_CURSOR_SHIFT | HD44780_SHIFT_DISPLAY | HD44780_SHIFT_LEFT);
			_delay_ms(800);
		}
	}

	i=-1;
    1040:	8f ef       	ldi	r24, 0xFF	; 255
    1042:	80 93 46 06 	sts	0x0646, r24
	licznik =0;		
    1046:	10 92 41 04 	sts	0x0441, r1
	
	TCCR1B = START_TIMER1;	//	start timera1
    104a:	85 e0       	ldi	r24, 0x05	; 5
    104c:	80 93 81 00 	sts	0x0081, r24
	sei();
    1050:	78 94       	sei


	//LCD_Clear();
	
	while((licznik!=1) & (licznik!=3) )
    1052:	80 91 41 04 	lds	r24, 0x0441
    1056:	8d 7f       	andi	r24, 0xFD	; 253
    1058:	81 30       	cpi	r24, 0x01	; 1
    105a:	69 f0       	breq	.+26     	; 0x1076 <Odczyt_kodow+0x2d0>
	{
		
		
		cli();
    105c:	f8 94       	cli
    105e:	8f e0       	ldi	r24, 0x0F	; 15
    1060:	97 e2       	ldi	r25, 0x27	; 39
    1062:	01 97       	sbiw	r24, 0x01	; 1
    1064:	f1 f7       	brne	.-4      	; 0x1062 <Odczyt_kodow+0x2bc>
    1066:	00 c0       	rjmp	.+0      	; 0x1068 <Odczyt_kodow+0x2c2>
    1068:	00 00       	nop
		_delay_ms(10);
		sei();
    106a:	78 94       	sei
	sei();


	//LCD_Clear();
	
	while((licznik!=1) & (licznik!=3) )
    106c:	80 91 41 04 	lds	r24, 0x0441
    1070:	8d 7f       	andi	r24, 0xFD	; 253
    1072:	81 30       	cpi	r24, 0x01	; 1
    1074:	99 f7       	brne	.-26     	; 0x105c <Odczyt_kodow+0x2b6>
		
		cli();
		_delay_ms(10);
		sei();
	}
	while((licznik!=2) & (licznik!=3))
    1076:	80 91 41 04 	lds	r24, 0x0441
    107a:	82 50       	subi	r24, 0x02	; 2
    107c:	82 30       	cpi	r24, 0x02	; 2
    107e:	68 f0       	brcs	.+26     	; 0x109a <Odczyt_kodow+0x2f4>
	{
		cli();
    1080:	f8 94       	cli
    1082:	8f e0       	ldi	r24, 0x0F	; 15
    1084:	97 e2       	ldi	r25, 0x27	; 39
    1086:	01 97       	sbiw	r24, 0x01	; 1
    1088:	f1 f7       	brne	.-4      	; 0x1086 <Odczyt_kodow+0x2e0>
    108a:	00 c0       	rjmp	.+0      	; 0x108c <Odczyt_kodow+0x2e6>
    108c:	00 00       	nop
		_delay_ms(10);
		sei();
    108e:	78 94       	sei
		
		cli();
		_delay_ms(10);
		sei();
	}
	while((licznik!=2) & (licznik!=3))
    1090:	80 91 41 04 	lds	r24, 0x0441
    1094:	82 50       	subi	r24, 0x02	; 2
    1096:	82 30       	cpi	r24, 0x02	; 2
    1098:	98 f7       	brcc	.-26     	; 0x1080 <Odczyt_kodow+0x2da>
		_delay_ms(10);
		sei();
		
	}
	
	sei();
    109a:	78 94       	sei

	while(licznik!=3)
    109c:	3f c0       	rjmp	.+126    	; 0x111c <Odczyt_kodow+0x376>
	{
		if (licznik ==1)
    109e:	81 30       	cpi	r24, 0x01	; 1
    10a0:	d9 f4       	brne	.+54     	; 0x10d8 <Odczyt_kodow+0x332>
		{
			cli();
    10a2:	f8 94       	cli
			if (czas_zmierzony>czas_przerw)
    10a4:	20 91 5b 06 	lds	r18, 0x065B
    10a8:	30 91 5c 06 	lds	r19, 0x065C
    10ac:	80 91 42 04 	lds	r24, 0x0442
    10b0:	90 91 43 04 	lds	r25, 0x0443
    10b4:	82 17       	cp	r24, r18
    10b6:	93 07       	cpc	r25, r19
    10b8:	58 f4       	brcc	.+22     	; 0x10d0 <Odczyt_kodow+0x32a>
			{
				i++;
    10ba:	80 91 46 06 	lds	r24, 0x0646
    10be:	91 e0       	ldi	r25, 0x01	; 1
    10c0:	98 0f       	add	r25, r24
    10c2:	90 93 46 06 	sts	0x0646, r25
				if (i==MAX_ILOSC_KODOW)	//	sprawdzenie czy nie przekraczamy tablicy kodów
    10c6:	9c 30       	cpi	r25, 0x0C	; 12
    10c8:	71 f1       	breq	.+92     	; 0x1126 <Odczyt_kodow+0x380>
				{
					break;
				}
				ilosc_kodow_bledow = i+1;
    10ca:	8e 5f       	subi	r24, 0xFE	; 254
    10cc:	80 93 40 04 	sts	0x0440, r24
				
			}
			licznik = 0;
    10d0:	10 92 41 04 	sts	0x0441, r1
			sei();
    10d4:	78 94       	sei
    10d6:	22 c0       	rjmp	.+68     	; 0x111c <Odczyt_kodow+0x376>
		}
		else if(licznik== 2)
    10d8:	82 30       	cpi	r24, 0x02	; 2
    10da:	01 f5       	brne	.+64     	; 0x111c <Odczyt_kodow+0x376>
		{
			cli();
    10dc:	f8 94       	cli
			if (czas_zmierzony>czas_jednosci)
    10de:	20 91 5b 06 	lds	r18, 0x065B
    10e2:	30 91 5c 06 	lds	r19, 0x065C
    10e6:	80 91 6f 06 	lds	r24, 0x066F
    10ea:	90 91 70 06 	lds	r25, 0x0670
    10ee:	82 17       	cp	r24, r18
    10f0:	93 07       	cpc	r25, r19
    10f2:	48 f4       	brcc	.+18     	; 0x1106 <Odczyt_kodow+0x360>
			{
				kody_bledow[i] = kody_bledow[i] + 10;
    10f4:	e0 91 46 06 	lds	r30, 0x0646
    10f8:	f0 e0       	ldi	r31, 0x00	; 0
    10fa:	ed 59       	subi	r30, 0x9D	; 157
    10fc:	f9 4f       	sbci	r31, 0xF9	; 249
    10fe:	80 81       	ld	r24, Z
    1100:	86 5f       	subi	r24, 0xF6	; 246
    1102:	80 83       	st	Z, r24
    1104:	08 c0       	rjmp	.+16     	; 0x1116 <Odczyt_kodow+0x370>
			} 
			else
			{
				kody_bledow[i] = kody_bledow[i] + 1;
    1106:	e0 91 46 06 	lds	r30, 0x0646
    110a:	f0 e0       	ldi	r31, 0x00	; 0
    110c:	ed 59       	subi	r30, 0x9D	; 157
    110e:	f9 4f       	sbci	r31, 0xF9	; 249
    1110:	80 81       	ld	r24, Z
    1112:	8f 5f       	subi	r24, 0xFF	; 255
    1114:	80 83       	st	Z, r24
			}
			
			licznik = 0;
    1116:	10 92 41 04 	sts	0x0441, r1
			sei();
    111a:	78 94       	sei
		
	}
	
	sei();

	while(licznik!=3)
    111c:	80 91 41 04 	lds	r24, 0x0441
    1120:	83 30       	cpi	r24, 0x03	; 3
    1122:	09 f0       	breq	.+2      	; 0x1126 <Odczyt_kodow+0x380>
    1124:	bc cf       	rjmp	.-136    	; 0x109e <Odczyt_kodow+0x2f8>
			licznik = 0;
			sei();
		}
		
	}
	cli();
    1126:	f8 94       	cli
	
	//ilosc_kodow_bledow++;

	SIGNAL_ENABLE_PORT &=~ (1<<SIGNAL_ENABLE);	//	sygna³ dla ECU o chêci odczytu kodów
    1128:	28 98       	cbi	0x05, 0	; 5

	LCD_Clear();
    112a:	0e 94 1d 01 	call	0x23a	; 0x23a <LCD_Clear>
	LCD_Home();
    112e:	0e 94 27 01 	call	0x24e	; 0x24e <LCD_Home>
	LCD_WriteText("    ***KONIEC***   ");                      //	wyœwietlanie pierwszego wiersza
    1132:	8a eb       	ldi	r24, 0xBA	; 186
    1134:	93 e0       	ldi	r25, 0x03	; 3
    1136:	0e 94 06 01 	call	0x20c	; 0x20c <LCD_WriteText>
	LCD_GoTo(M_DRUGA_LINIA_P1);
    113a:	61 e0       	ldi	r22, 0x01	; 1
    113c:	80 e0       	ldi	r24, 0x00	; 0
    113e:	0e 94 15 01 	call	0x22a	; 0x22a <LCD_GoTo>
    1142:	9f ef       	ldi	r25, 0xFF	; 255
    1144:	23 ec       	ldi	r18, 0xC3	; 195
    1146:	89 e0       	ldi	r24, 0x09	; 9
    1148:	91 50       	subi	r25, 0x01	; 1
    114a:	20 40       	sbci	r18, 0x00	; 0
    114c:	80 40       	sbci	r24, 0x00	; 0
    114e:	e1 f7       	brne	.-8      	; 0x1148 <Odczyt_kodow+0x3a2>
    1150:	00 c0       	rjmp	.+0      	; 0x1152 <Odczyt_kodow+0x3ac>
    1152:	00 00       	nop
	_delay_ms(800);

	if (ilosc_kodow_bledow==0)
    1154:	80 91 40 04 	lds	r24, 0x0440
    1158:	81 11       	cpse	r24, r1
    115a:	05 c0       	rjmp	.+10     	; 0x1166 <Odczyt_kodow+0x3c0>
	{
		LCD_WriteText("Brak blendow    ");
    115c:	8e ec       	ldi	r24, 0xCE	; 206
    115e:	93 e0       	ldi	r25, 0x03	; 3
    1160:	0e 94 06 01 	call	0x20c	; 0x20c <LCD_WriteText>
    1164:	2c c0       	rjmp	.+88     	; 0x11be <Odczyt_kodow+0x418>
	} 
	else
	{
		for (i=0;i<ilosc_kodow_bledow;i++)
    1166:	10 92 46 06 	sts	0x0646, r1
    116a:	80 91 40 04 	lds	r24, 0x0440
    116e:	88 23       	and	r24, r24
    1170:	31 f1       	breq	.+76     	; 0x11be <Odczyt_kodow+0x418>
    1172:	e0 e0       	ldi	r30, 0x00	; 0
		{
				if(kody_bledow[i]<10)
    1174:	f0 e0       	ldi	r31, 0x00	; 0
    1176:	ed 59       	subi	r30, 0x9D	; 157
    1178:	f9 4f       	sbci	r31, 0xF9	; 249
    117a:	80 81       	ld	r24, Z
    117c:	8a 30       	cpi	r24, 0x0A	; 10
    117e:	20 f4       	brcc	.+8      	; 0x1188 <Odczyt_kodow+0x3e2>
				{
					LCD_WriteText(" ");
    1180:	89 e1       	ldi	r24, 0x19	; 25
    1182:	91 e0       	ldi	r25, 0x01	; 1
    1184:	0e 94 06 01 	call	0x20c	; 0x20c <LCD_WriteText>
				}
				LCD_WriteText(utoa(kody_bledow[i],string_16_znakow,10));
    1188:	e0 91 46 06 	lds	r30, 0x0646
    118c:	f0 e0       	ldi	r31, 0x00	; 0
    118e:	ed 59       	subi	r30, 0x9D	; 157
    1190:	f9 4f       	sbci	r31, 0xF9	; 249
    1192:	80 81       	ld	r24, Z
    1194:	4a e0       	ldi	r20, 0x0A	; 10
    1196:	67 e4       	ldi	r22, 0x47	; 71
    1198:	76 e0       	ldi	r23, 0x06	; 6
    119a:	90 e0       	ldi	r25, 0x00	; 0
    119c:	0e 94 49 0f 	call	0x1e92	; 0x1e92 <__utoa_ncheck>
    11a0:	0e 94 06 01 	call	0x20c	; 0x20c <LCD_WriteText>
				LCD_WriteText(" ");
    11a4:	89 e1       	ldi	r24, 0x19	; 25
    11a6:	91 e0       	ldi	r25, 0x01	; 1
    11a8:	0e 94 06 01 	call	0x20c	; 0x20c <LCD_WriteText>
	{
		LCD_WriteText("Brak blendow    ");
	} 
	else
	{
		for (i=0;i<ilosc_kodow_bledow;i++)
    11ac:	e0 91 46 06 	lds	r30, 0x0646
    11b0:	ef 5f       	subi	r30, 0xFF	; 255
    11b2:	e0 93 46 06 	sts	0x0646, r30
    11b6:	80 91 40 04 	lds	r24, 0x0440
    11ba:	e8 17       	cp	r30, r24
    11bc:	d8 f2       	brcs	.-74     	; 0x1174 <Odczyt_kodow+0x3ce>
	
	while(1)
	{

		// sprawdzenie niebieskiego przycisku
		if(!(BUTTON_PIN & (1<<BUTTON_BLUE)))
    11be:	4d 99       	sbic	0x09, 5	; 9
    11c0:	1e c0       	rjmp	.+60     	; 0x11fe <Odczyt_kodow+0x458>
    11c2:	9f e7       	ldi	r25, 0x7F	; 127
    11c4:	28 e3       	ldi	r18, 0x38	; 56
    11c6:	81 e0       	ldi	r24, 0x01	; 1
    11c8:	91 50       	subi	r25, 0x01	; 1
    11ca:	20 40       	sbci	r18, 0x00	; 0
    11cc:	80 40       	sbci	r24, 0x00	; 0
    11ce:	e1 f7       	brne	.-8      	; 0x11c8 <Odczyt_kodow+0x422>
    11d0:	00 c0       	rjmp	.+0      	; 0x11d2 <Odczyt_kodow+0x42c>
    11d2:	00 00       	nop
		{
			_delay_ms(CZAS_ZWLOKI_PRZYCISKOW_MS);
			if(!(BUTTON_PIN & (1<<BUTTON_BLUE)))
    11d4:	4d 99       	sbic	0x09, 5	; 9
    11d6:	13 c0       	rjmp	.+38     	; 0x11fe <Odczyt_kodow+0x458>
			{
				if ((ilosc_kodow_bledow)*3>16)
    11d8:	80 91 40 04 	lds	r24, 0x0440
    11dc:	90 e0       	ldi	r25, 0x00	; 0
    11de:	9c 01       	movw	r18, r24
    11e0:	22 0f       	add	r18, r18
    11e2:	33 1f       	adc	r19, r19
    11e4:	82 0f       	add	r24, r18
    11e6:	93 1f       	adc	r25, r19
    11e8:	41 97       	sbiw	r24, 0x11	; 17
    11ea:	4c f0       	brlt	.+18     	; 0x11fe <Odczyt_kodow+0x458>
				{
					LCD_WriteCommand((HD44780_DISPLAY_CURSOR_SHIFT | HD44780_SHIFT_DISPLAY | HD44780_SHIFT_LEFT));
    11ec:	88 e1       	ldi	r24, 0x18	; 24
    11ee:	0e 94 fe 00 	call	0x1fc	; 0x1fc <LCD_WriteCommand>
					LCD_WriteCommand((HD44780_DISPLAY_CURSOR_SHIFT | HD44780_SHIFT_DISPLAY | HD44780_SHIFT_LEFT));
    11f2:	88 e1       	ldi	r24, 0x18	; 24
    11f4:	0e 94 fe 00 	call	0x1fc	; 0x1fc <LCD_WriteCommand>
					LCD_WriteCommand((HD44780_DISPLAY_CURSOR_SHIFT | HD44780_SHIFT_DISPLAY | HD44780_SHIFT_LEFT));
    11f8:	88 e1       	ldi	r24, 0x18	; 24
    11fa:	0e 94 fe 00 	call	0x1fc	; 0x1fc <LCD_WriteCommand>
				}
			}
		}

		// sprawdzenie czerwonego przycisku
		if(!(BUTTON_PIN & (1<<BUTTON_RED)))
    11fe:	4f 99       	sbic	0x09, 7	; 9
    1200:	de cf       	rjmp	.-68     	; 0x11be <Odczyt_kodow+0x418>
    1202:	9f e7       	ldi	r25, 0x7F	; 127
    1204:	28 e3       	ldi	r18, 0x38	; 56
    1206:	81 e0       	ldi	r24, 0x01	; 1
    1208:	91 50       	subi	r25, 0x01	; 1
    120a:	20 40       	sbci	r18, 0x00	; 0
    120c:	80 40       	sbci	r24, 0x00	; 0
    120e:	e1 f7       	brne	.-8      	; 0x1208 <Odczyt_kodow+0x462>
    1210:	00 c0       	rjmp	.+0      	; 0x1212 <Odczyt_kodow+0x46c>
    1212:	00 00       	nop
		{
			_delay_ms(CZAS_ZWLOKI_PRZYCISKOW_MS);
			if(!(BUTTON_PIN & (1<<BUTTON_RED)))
    1214:	4f 99       	sbic	0x09, 7	; 9
    1216:	d3 cf       	rjmp	.-90     	; 0x11be <Odczyt_kodow+0x418>
			{
				return M_CZY_DEKODOWAC_KODY;
    1218:	c4 e0       	ldi	r28, 0x04	; 4
			}
		}
	}

	return M_CZY_DEKODOWAC_KODY;
}
    121a:	8c 2f       	mov	r24, r28
    121c:	cf 91       	pop	r28
    121e:	08 95       	ret

00001220 <Czy_dekodowac_kody>:
#endif

uint8_t Czy_dekodowac_kody(void)
{	
	LCD_Clear();
    1220:	0e 94 1d 01 	call	0x23a	; 0x23a <LCD_Clear>
	LCD_Home();
    1224:	0e 94 27 01 	call	0x24e	; 0x24e <LCD_Home>
	LCD_WriteText("Dekodowac kody?    ");                      //	wyœwietlanie pierwszego wiersza
    1228:	8f ed       	ldi	r24, 0xDF	; 223
    122a:	93 e0       	ldi	r25, 0x03	; 3
    122c:	0e 94 06 01 	call	0x20c	; 0x20c <LCD_WriteText>
	LCD_GoTo(M_DRUGA_LINIA_P1);								//	przejscie do 2 lini
    1230:	61 e0       	ldi	r22, 0x01	; 1
    1232:	80 e0       	ldi	r24, 0x00	; 0
    1234:	0e 94 15 01 	call	0x22a	; 0x22a <LCD_GoTo>
	LCD_WriteText("Zielony = TAK  Niebieski = NIE  ");                      // wyœwietlanie drugiego wiersza
    1238:	83 ef       	ldi	r24, 0xF3	; 243
    123a:	93 e0       	ldi	r25, 0x03	; 3
    123c:	0e 94 06 01 	call	0x20c	; 0x20c <LCD_WriteText>
    1240:	2f ef       	ldi	r18, 0xFF	; 255
    1242:	84 e3       	ldi	r24, 0x34	; 52
    1244:	9c e0       	ldi	r25, 0x0C	; 12
    1246:	21 50       	subi	r18, 0x01	; 1
    1248:	80 40       	sbci	r24, 0x00	; 0
    124a:	90 40       	sbci	r25, 0x00	; 0
    124c:	e1 f7       	brne	.-8      	; 0x1246 <Czy_dekodowac_kody+0x26>
    124e:	00 c0       	rjmp	.+0      	; 0x1250 <Czy_dekodowac_kody+0x30>
    1250:	00 00       	nop
	_delay_ms(1000);
	while(1)
	{
		if(!(BUTTON_PIN & (1<<BUTTON_GREEN)))
    1252:	4e 99       	sbic	0x09, 6	; 9
    1254:	0b c0       	rjmp	.+22     	; 0x126c <Czy_dekodowac_kody+0x4c>
    1256:	2f e7       	ldi	r18, 0x7F	; 127
    1258:	88 e3       	ldi	r24, 0x38	; 56
    125a:	91 e0       	ldi	r25, 0x01	; 1
    125c:	21 50       	subi	r18, 0x01	; 1
    125e:	80 40       	sbci	r24, 0x00	; 0
    1260:	90 40       	sbci	r25, 0x00	; 0
    1262:	e1 f7       	brne	.-8      	; 0x125c <Czy_dekodowac_kody+0x3c>
    1264:	00 c0       	rjmp	.+0      	; 0x1266 <Czy_dekodowac_kody+0x46>
    1266:	00 00       	nop
		{
			_delay_ms(CZAS_ZWLOKI_PRZYCISKOW_MS);
			if(!(BUTTON_PIN & (1<<BUTTON_GREEN)))
    1268:	4e 9b       	sbis	0x09, 6	; 9
    126a:	27 c0       	rjmp	.+78     	; 0x12ba <Czy_dekodowac_kody+0x9a>
				return M_DEKODOWANIE_KODOW;
			}
		}
		

		if(!(BUTTON_PIN & (1<<BUTTON_BLUE)))
    126c:	4d 99       	sbic	0x09, 5	; 9
    126e:	0b c0       	rjmp	.+22     	; 0x1286 <Czy_dekodowac_kody+0x66>
    1270:	2f e7       	ldi	r18, 0x7F	; 127
    1272:	88 e3       	ldi	r24, 0x38	; 56
    1274:	91 e0       	ldi	r25, 0x01	; 1
    1276:	21 50       	subi	r18, 0x01	; 1
    1278:	80 40       	sbci	r24, 0x00	; 0
    127a:	90 40       	sbci	r25, 0x00	; 0
    127c:	e1 f7       	brne	.-8      	; 0x1276 <Czy_dekodowac_kody+0x56>
    127e:	00 c0       	rjmp	.+0      	; 0x1280 <Czy_dekodowac_kody+0x60>
    1280:	00 00       	nop
		{
			_delay_ms(CZAS_ZWLOKI_PRZYCISKOW_MS);
			if(!(BUTTON_PIN & (1<<BUTTON_BLUE)))
    1282:	4d 9b       	sbis	0x09, 5	; 9
    1284:	1c c0       	rjmp	.+56     	; 0x12be <Czy_dekodowac_kody+0x9e>
			{
				return M_ZAKONCZ;
			}
		}

		if(!(BUTTON_PIN & (1<<BUTTON_RED)))
    1286:	4f 99       	sbic	0x09, 7	; 9
    1288:	0b c0       	rjmp	.+22     	; 0x12a0 <Czy_dekodowac_kody+0x80>
    128a:	2f e7       	ldi	r18, 0x7F	; 127
    128c:	88 e3       	ldi	r24, 0x38	; 56
    128e:	91 e0       	ldi	r25, 0x01	; 1
    1290:	21 50       	subi	r18, 0x01	; 1
    1292:	80 40       	sbci	r24, 0x00	; 0
    1294:	90 40       	sbci	r25, 0x00	; 0
    1296:	e1 f7       	brne	.-8      	; 0x1290 <Czy_dekodowac_kody+0x70>
    1298:	00 c0       	rjmp	.+0      	; 0x129a <Czy_dekodowac_kody+0x7a>
    129a:	00 00       	nop
		{
			_delay_ms(CZAS_ZWLOKI_PRZYCISKOW_MS);
			if(!(BUTTON_PIN & (1<<BUTTON_RED)))
    129c:	4f 9b       	sbis	0x09, 7	; 9
    129e:	11 c0       	rjmp	.+34     	; 0x12c2 <Czy_dekodowac_kody+0xa2>
			{
				return M_WYBOR_FUNKCJI;
			}
		}

		LCD_WriteCommand(HD44780_DISPLAY_CURSOR_SHIFT | HD44780_SHIFT_DISPLAY | HD44780_SHIFT_LEFT);
    12a0:	88 e1       	ldi	r24, 0x18	; 24
    12a2:	0e 94 fe 00 	call	0x1fc	; 0x1fc <LCD_WriteCommand>
    12a6:	2f e7       	ldi	r18, 0x7F	; 127
    12a8:	8a e1       	ldi	r24, 0x1A	; 26
    12aa:	96 e0       	ldi	r25, 0x06	; 6
    12ac:	21 50       	subi	r18, 0x01	; 1
    12ae:	80 40       	sbci	r24, 0x00	; 0
    12b0:	90 40       	sbci	r25, 0x00	; 0
    12b2:	e1 f7       	brne	.-8      	; 0x12ac <Czy_dekodowac_kody+0x8c>
    12b4:	00 c0       	rjmp	.+0      	; 0x12b6 <Czy_dekodowac_kody+0x96>
    12b6:	00 00       	nop
    12b8:	cc cf       	rjmp	.-104    	; 0x1252 <Czy_dekodowac_kody+0x32>
		if(!(BUTTON_PIN & (1<<BUTTON_GREEN)))
		{
			_delay_ms(CZAS_ZWLOKI_PRZYCISKOW_MS);
			if(!(BUTTON_PIN & (1<<BUTTON_GREEN)))
			{
				return M_DEKODOWANIE_KODOW;
    12ba:	85 e0       	ldi	r24, 0x05	; 5
    12bc:	08 95       	ret
		if(!(BUTTON_PIN & (1<<BUTTON_BLUE)))
		{
			_delay_ms(CZAS_ZWLOKI_PRZYCISKOW_MS);
			if(!(BUTTON_PIN & (1<<BUTTON_BLUE)))
			{
				return M_ZAKONCZ;
    12be:	86 e0       	ldi	r24, 0x06	; 6
    12c0:	08 95       	ret
		if(!(BUTTON_PIN & (1<<BUTTON_RED)))
		{
			_delay_ms(CZAS_ZWLOKI_PRZYCISKOW_MS);
			if(!(BUTTON_PIN & (1<<BUTTON_RED)))
			{
				return M_WYBOR_FUNKCJI;
    12c2:	80 e0       	ldi	r24, 0x00	; 0
		LCD_WriteCommand(HD44780_DISPLAY_CURSOR_SHIFT | HD44780_SHIFT_DISPLAY | HD44780_SHIFT_LEFT);
		_delay_ms(500);
	}
	
	return M_ZAKONCZ;
}
    12c4:	08 95       	ret

000012c6 <Dekodowanie_kodow>:
	return M_ZAKONCZ;
}	

#else
uint8_t Dekodowanie_kodow(void)
{	int8_t j=0;
    12c6:	6f 92       	push	r6
    12c8:	7f 92       	push	r7
    12ca:	8f 92       	push	r8
    12cc:	9f 92       	push	r9
    12ce:	af 92       	push	r10
    12d0:	bf 92       	push	r11
    12d2:	cf 92       	push	r12
    12d4:	df 92       	push	r13
    12d6:	ef 92       	push	r14
    12d8:	ff 92       	push	r15
    12da:	0f 93       	push	r16
    12dc:	1f 93       	push	r17
    12de:	cf 93       	push	r28
    12e0:	df 93       	push	r29
	uint16_t k;
	LCD_Clear();
    12e2:	0e 94 1d 01 	call	0x23a	; 0x23a <LCD_Clear>
	LCD_Home();
    12e6:	0e 94 27 01 	call	0x24e	; 0x24e <LCD_Home>
	if(!(IF_CARD_PIN & (1<<IF_CARD)))
    12ea:	19 99       	sbic	0x03, 1	; 3
    12ec:	0e c0       	rjmp	.+28     	; 0x130a <Dekodowanie_kodow+0x44>
	{
		LCD_WriteText("Brak Karty");
    12ee:	84 e1       	ldi	r24, 0x14	; 20
    12f0:	94 e0       	ldi	r25, 0x04	; 4
    12f2:	0e 94 06 01 	call	0x20c	; 0x20c <LCD_WriteText>
    12f6:	2f ef       	ldi	r18, 0xFF	; 255
    12f8:	8e e9       	ldi	r24, 0x9E	; 158
    12fa:	94 e2       	ldi	r25, 0x24	; 36
    12fc:	21 50       	subi	r18, 0x01	; 1
    12fe:	80 40       	sbci	r24, 0x00	; 0
    1300:	90 40       	sbci	r25, 0x00	; 0
    1302:	e1 f7       	brne	.-8      	; 0x12fc <Dekodowanie_kodow+0x36>
    1304:	00 c0       	rjmp	.+0      	; 0x1306 <Dekodowanie_kodow+0x40>
    1306:	00 00       	nop
		_delay_ms(3000);
		return M_ZAKONCZ;
    1308:	5d c3       	rjmp	.+1722   	; 0x19c4 <Dekodowanie_kodow+0x6fe>
	}
	Inicjalizacja_SPI();
    130a:	0e 94 70 01 	call	0x2e0	; 0x2e0 <Inicjalizacja_SPI>

	Inicjalizacja_SD();
    130e:	0e 94 7c 01 	call	0x2f8	; 0x2f8 <Inicjalizacja_SD>
	
	//	adres pocz¹tku spisu tablic z kodami od poczatku pliku
	adres_dodatek[0] = 0x00;
    1312:	ef e5       	ldi	r30, 0x5F	; 95
    1314:	f6 e0       	ldi	r31, 0x06	; 6
	adres_dodatek[1] = 0x00;
	adres_dodatek[2] = 0x04;
	adres_dodatek[3] = 0x00;
    1316:	13 82       	std	Z+3, r1	; 0x03
	
	for (i=0;i<4;i++)
	{
		adres_dodatek[i] = adres_dodatek[i] + adres_bof[i];
    1318:	82 e0       	ldi	r24, 0x02	; 2
    131a:	80 83       	st	Z, r24
    131c:	81 83       	std	Z+1, r24	; 0x01
    131e:	86 e0       	ldi	r24, 0x06	; 6
    1320:	82 83       	std	Z+2, r24	; 0x02
    1322:	84 e0       	ldi	r24, 0x04	; 4
    1324:	80 93 46 06 	sts	0x0646, r24
	}
	zmienna_16b = Odczyt_danych_z_SD(adres_dodatek,bajty_z_karty);
    1328:	64 e4       	ldi	r22, 0x44	; 68
    132a:	74 e0       	ldi	r23, 0x04	; 4
    132c:	cf 01       	movw	r24, r30
    132e:	0e 94 37 02 	call	0x46e	; 0x46e <Odczyt_danych_z_SD>
    1332:	90 93 5e 06 	sts	0x065E, r25
    1336:	80 93 5d 06 	sts	0x065D, r24

	
	j =  bajty_z_karty[31];
    133a:	d0 90 63 04 	lds	r13, 0x0463
    133e:	ed 2c       	mov	r14, r13
	licznik = 0;
    1340:	10 92 41 04 	sts	0x0441, r1
	LCD_Clear();
    1344:	0e 94 1d 01 	call	0x23a	; 0x23a <LCD_Clear>
	LCD_Home();
    1348:	0e 94 27 01 	call	0x24e	; 0x24e <LCD_Home>
	LCD_WriteText("Wybierz pojazd ");
    134c:	8f e1       	ldi	r24, 0x1F	; 31
    134e:	94 e0       	ldi	r25, 0x04	; 4
    1350:	0e 94 06 01 	call	0x20c	; 0x20c <LCD_WriteText>
	LCD_GoTo(M_DRUGA_LINIA_P1);
    1354:	61 e0       	ldi	r22, 0x01	; 1
    1356:	80 e0       	ldi	r24, 0x00	; 0
    1358:	0e 94 15 01 	call	0x22a	; 0x22a <LCD_GoTo>
	for(k=licznik*32;k<16+licznik*32;k++)
    135c:	c0 91 41 04 	lds	r28, 0x0441
    1360:	e0 e2       	ldi	r30, 0x20	; 32
    1362:	ce 9f       	mul	r28, r30
    1364:	e0 01       	movw	r28, r0
    1366:	11 24       	eor	r1, r1
    1368:	ce 01       	movw	r24, r28
    136a:	40 96       	adiw	r24, 0x10	; 16
    136c:	c8 17       	cp	r28, r24
    136e:	d9 07       	cpc	r29, r25
    1370:	e0 f4       	brcc	.+56     	; 0x13aa <Dekodowanie_kodow+0xe4>
	{
		if (bajty_z_karty[k]==':')
    1372:	fe 01       	movw	r30, r28
    1374:	ec 5b       	subi	r30, 0xBC	; 188
    1376:	fb 4f       	sbci	r31, 0xFB	; 251
    1378:	80 81       	ld	r24, Z
    137a:	8a 33       	cpi	r24, 0x3A	; 58
    137c:	b1 f0       	breq	.+44     	; 0x13aa <Dekodowanie_kodow+0xe4>
    137e:	8e 01       	movw	r16, r28
    1380:	0b 5b       	subi	r16, 0xBB	; 187
    1382:	1b 4f       	sbci	r17, 0xFB	; 251
    1384:	05 c0       	rjmp	.+10     	; 0x1390 <Dekodowanie_kodow+0xca>
    1386:	f8 01       	movw	r30, r16
    1388:	81 91       	ld	r24, Z+
    138a:	8f 01       	movw	r16, r30
    138c:	8a 33       	cpi	r24, 0x3A	; 58
    138e:	69 f0       	breq	.+26     	; 0x13aa <Dekodowanie_kodow+0xe4>
		{
			break;
		}
		LCD_WriteData(bajty_z_karty[k]);
    1390:	0e 94 02 01 	call	0x204	; 0x204 <LCD_WriteData>
	licznik = 0;
	LCD_Clear();
	LCD_Home();
	LCD_WriteText("Wybierz pojazd ");
	LCD_GoTo(M_DRUGA_LINIA_P1);
	for(k=licznik*32;k<16+licznik*32;k++)
    1394:	21 96       	adiw	r28, 0x01	; 1
    1396:	80 91 41 04 	lds	r24, 0x0441
    139a:	f0 e2       	ldi	r31, 0x20	; 32
    139c:	8f 9f       	mul	r24, r31
    139e:	c0 01       	movw	r24, r0
    13a0:	11 24       	eor	r1, r1
    13a2:	40 96       	adiw	r24, 0x10	; 16
    13a4:	c8 17       	cp	r28, r24
    13a6:	d9 07       	cpc	r29, r25
    13a8:	70 f3       	brcs	.-36     	; 0x1386 <Dekodowanie_kodow+0xc0>
		if(!(BUTTON_PIN & (1<<BUTTON_GREEN)))
		{
			_delay_ms(CZAS_ZWLOKI_PRZYCISKOW_MS);
			if(!(BUTTON_PIN & (1<<BUTTON_GREEN)))
			{
				licznik = (++licznik)%j;
    13aa:	0e 2c       	mov	r0, r14
    13ac:	00 0c       	add	r0, r0
    13ae:	ff 08       	sbc	r15, r15
			if(!(BUTTON_PIN & (1<<BUTTON_BLUE)))
			{
				licznik = licznik-1;
				if (licznik==0xff)
				{
					licznik = j-1;
    13b0:	da 94       	dec	r13
		LCD_WriteData(bajty_z_karty[k]);
	}
	
	while(licznik!=-1)
	{
		if(!(BUTTON_PIN & (1<<BUTTON_RED)))
    13b2:	4f 99       	sbic	0x09, 7	; 9
    13b4:	7d c0       	rjmp	.+250    	; 0x14b0 <Dekodowanie_kodow+0x1ea>
    13b6:	2f e7       	ldi	r18, 0x7F	; 127
    13b8:	88 e3       	ldi	r24, 0x38	; 56
    13ba:	91 e0       	ldi	r25, 0x01	; 1
    13bc:	21 50       	subi	r18, 0x01	; 1
    13be:	80 40       	sbci	r24, 0x00	; 0
    13c0:	90 40       	sbci	r25, 0x00	; 0
    13c2:	e1 f7       	brne	.-8      	; 0x13bc <Dekodowanie_kodow+0xf6>
    13c4:	00 c0       	rjmp	.+0      	; 0x13c6 <Dekodowanie_kodow+0x100>
    13c6:	00 00       	nop
		{
			_delay_ms(CZAS_ZWLOKI_PRZYCISKOW_MS);
			if(!(BUTTON_PIN & (1<<BUTTON_RED)))
    13c8:	4f 99       	sbic	0x09, 7	; 9
    13ca:	72 c0       	rjmp	.+228    	; 0x14b0 <Dekodowanie_kodow+0x1ea>
			{
				 adres_tablicy[0] = bajty_z_karty[32*licznik+27]+ adres_bof[0];
    13cc:	e0 91 41 04 	lds	r30, 0x0441
    13d0:	20 e2       	ldi	r18, 0x20	; 32
    13d2:	e2 9f       	mul	r30, r18
    13d4:	f0 01       	movw	r30, r0
    13d6:	11 24       	eor	r1, r1
    13d8:	a7 e5       	ldi	r26, 0x57	; 87
    13da:	b6 e0       	ldi	r27, 0x06	; 6
    13dc:	ec 5b       	subi	r30, 0xBC	; 188
    13de:	fb 4f       	sbci	r31, 0xFB	; 251
    13e0:	83 8d       	ldd	r24, Z+27	; 0x1b
    13e2:	8e 5f       	subi	r24, 0xFE	; 254
    13e4:	8c 93       	st	X, r24
				 adres_tablicy[1] = bajty_z_karty[32*licznik+28]+ adres_bof[1];
    13e6:	84 8d       	ldd	r24, Z+28	; 0x1c
    13e8:	8e 5f       	subi	r24, 0xFE	; 254
    13ea:	11 96       	adiw	r26, 0x01	; 1
    13ec:	8c 93       	st	X, r24
    13ee:	11 97       	sbiw	r26, 0x01	; 1
				 adres_tablicy[2] = bajty_z_karty[32*licznik+29]+ adres_bof[2];
    13f0:	85 8d       	ldd	r24, Z+29	; 0x1d
    13f2:	8e 5f       	subi	r24, 0xFE	; 254
    13f4:	12 96       	adiw	r26, 0x02	; 2
    13f6:	8c 93       	st	X, r24
    13f8:	12 97       	sbiw	r26, 0x02	; 2
				 adres_tablicy[3] = bajty_z_karty[32*licznik+30]+ adres_bof[3];
    13fa:	86 8d       	ldd	r24, Z+30	; 0x1e
    13fc:	13 96       	adiw	r26, 0x03	; 3
    13fe:	8c 93       	st	X, r24
				licznik = -1;
    1400:	8f ef       	ldi	r24, 0xFF	; 255
    1402:	80 93 41 04 	sts	0x0441, r24
				}
				
			}
		}
	}
	LCD_Home();
    1406:	0e 94 27 01 	call	0x24e	; 0x24e <LCD_Home>
	LCD_WriteText("*Wybrano pojazd*") ;
    140a:	8f e2       	ldi	r24, 0x2F	; 47
    140c:	94 e0       	ldi	r25, 0x04	; 4
    140e:	0e 94 06 01 	call	0x20c	; 0x20c <LCD_WriteText>
    1412:	8f ef       	ldi	r24, 0xFF	; 255
    1414:	99 e6       	ldi	r25, 0x69	; 105
    1416:	e8 e1       	ldi	r30, 0x18	; 24
    1418:	81 50       	subi	r24, 0x01	; 1
    141a:	90 40       	sbci	r25, 0x00	; 0
    141c:	e0 40       	sbci	r30, 0x00	; 0
    141e:	e1 f7       	brne	.-8      	; 0x1418 <Dekodowanie_kodow+0x152>
    1420:	00 c0       	rjmp	.+0      	; 0x1422 <Dekodowanie_kodow+0x15c>
    1422:	00 00       	nop
	_delay_ms(2000);

	//////////////////////////////////////////////////////////////////////////
	//	wyswietlanie kodow wg wybranej tablicy
	j =  0;
	licznik = 0;
    1424:	10 92 41 04 	sts	0x0441, r1
	
	zmienna_16b = (kody_bledow[licznik]*64/512)*512;		//	uzyskanie odsuniecia, 64 znaki na kod i  512 na odczyt. dzielimy 512 aby uzyskac numer klasteru i potem mnozymy w celu otrzymania jego adresu
    1428:	80 91 63 06 	lds	r24, 0x0663
    142c:	f0 e4       	ldi	r31, 0x40	; 64
    142e:	8f 9f       	mul	r24, r31
    1430:	c0 01       	movw	r24, r0
    1432:	11 24       	eor	r1, r1
    1434:	89 2f       	mov	r24, r25
    1436:	8e 7f       	andi	r24, 0xFE	; 254
    1438:	10 92 5d 06 	sts	0x065D, r1
    143c:	80 93 5e 06 	sts	0x065E, r24
	adres_dodatek[0] = adres_tablicy[0]+(uint8_t)(zmienna_16b>>24);
    1440:	ef e5       	ldi	r30, 0x5F	; 95
    1442:	f6 e0       	ldi	r31, 0x06	; 6
    1444:	a7 e5       	ldi	r26, 0x57	; 87
    1446:	b6 e0       	ldi	r27, 0x06	; 6
    1448:	9c 91       	ld	r25, X
    144a:	90 83       	st	Z, r25
	adres_dodatek[1] = adres_tablicy[1]+(uint8_t)(zmienna_16b>>16);
    144c:	11 96       	adiw	r26, 0x01	; 1
    144e:	9c 91       	ld	r25, X
    1450:	11 97       	sbiw	r26, 0x01	; 1
    1452:	91 83       	std	Z+1, r25	; 0x01
	adres_dodatek[2] = adres_tablicy[2]+(uint8_t)(zmienna_16b>>8);
    1454:	12 96       	adiw	r26, 0x02	; 2
    1456:	9c 91       	ld	r25, X
    1458:	12 97       	sbiw	r26, 0x02	; 2
    145a:	89 0f       	add	r24, r25
    145c:	82 83       	std	Z+2, r24	; 0x02
	adres_dodatek[3] = adres_tablicy[3]+(uint8_t)(zmienna_16b);
    145e:	13 96       	adiw	r26, 0x03	; 3
    1460:	8c 91       	ld	r24, X
    1462:	83 83       	std	Z+3, r24	; 0x03

	
	Odczyt_danych_z_SD(adres_dodatek,bajty_z_karty);
    1464:	64 e4       	ldi	r22, 0x44	; 68
    1466:	74 e0       	ldi	r23, 0x04	; 4
    1468:	cf 01       	movw	r24, r30
    146a:	0e 94 37 02 	call	0x46e	; 0x46e <Odczyt_danych_z_SD>
	LCD_Clear();
    146e:	0e 94 1d 01 	call	0x23a	; 0x23a <LCD_Clear>
	LCD_Home();
    1472:	0e 94 27 01 	call	0x24e	; 0x24e <LCD_Home>
	for(k=kody_bledow[licznik]*64%512;k<16+kody_bledow[licznik]*64%512;k++)
    1476:	e0 91 41 04 	lds	r30, 0x0441
    147a:	f0 e0       	ldi	r31, 0x00	; 0
    147c:	ed 59       	subi	r30, 0x9D	; 157
    147e:	f9 4f       	sbci	r31, 0xF9	; 249
    1480:	c0 81       	ld	r28, Z
    1482:	20 e4       	ldi	r18, 0x40	; 64
    1484:	c2 9f       	mul	r28, r18
    1486:	e0 01       	movw	r28, r0
    1488:	11 24       	eor	r1, r1
    148a:	c0 7c       	andi	r28, 0xC0	; 192
    148c:	d1 70       	andi	r29, 0x01	; 1
    148e:	ce 01       	movw	r24, r28
    1490:	40 96       	adiw	r24, 0x10	; 16
    1492:	c8 17       	cp	r28, r24
    1494:	d9 07       	cpc	r29, r25
    1496:	08 f0       	brcs	.+2      	; 0x149a <Dekodowanie_kodow+0x1d4>
    1498:	5d c2       	rjmp	.+1210   	; 0x1954 <Dekodowanie_kodow+0x68e>
	{
		if (bajty_z_karty[k]<0x20)
    149a:	fe 01       	movw	r30, r28
    149c:	ec 5b       	subi	r30, 0xBC	; 188
    149e:	fb 4f       	sbci	r31, 0xFB	; 251
    14a0:	80 81       	ld	r24, Z
    14a2:	80 32       	cpi	r24, 0x20	; 32
    14a4:	08 f4       	brcc	.+2      	; 0x14a8 <Dekodowanie_kodow+0x1e2>
    14a6:	53 c2       	rjmp	.+1190   	; 0x194e <Dekodowanie_kodow+0x688>
    14a8:	8e 01       	movw	r16, r28
    14aa:	0b 5b       	subi	r16, 0xBB	; 187
    14ac:	1b 4f       	sbci	r17, 0xFB	; 251
    14ae:	a7 c0       	rjmp	.+334    	; 0x15fe <Dekodowanie_kodow+0x338>
				licznik = -1;
				break;
			}
		}
		
		if(!(BUTTON_PIN & (1<<BUTTON_GREEN)))
    14b0:	4e 99       	sbic	0x09, 6	; 9
    14b2:	4c c0       	rjmp	.+152    	; 0x154c <Dekodowanie_kodow+0x286>
    14b4:	8f e7       	ldi	r24, 0x7F	; 127
    14b6:	98 e3       	ldi	r25, 0x38	; 56
    14b8:	e1 e0       	ldi	r30, 0x01	; 1
    14ba:	81 50       	subi	r24, 0x01	; 1
    14bc:	90 40       	sbci	r25, 0x00	; 0
    14be:	e0 40       	sbci	r30, 0x00	; 0
    14c0:	e1 f7       	brne	.-8      	; 0x14ba <Dekodowanie_kodow+0x1f4>
    14c2:	00 c0       	rjmp	.+0      	; 0x14c4 <Dekodowanie_kodow+0x1fe>
    14c4:	00 00       	nop
		{
			_delay_ms(CZAS_ZWLOKI_PRZYCISKOW_MS);
			if(!(BUTTON_PIN & (1<<BUTTON_GREEN)))
    14c6:	4e 99       	sbic	0x09, 6	; 9
    14c8:	41 c0       	rjmp	.+130    	; 0x154c <Dekodowanie_kodow+0x286>
			{
				licznik = (++licznik)%j;
    14ca:	80 91 41 04 	lds	r24, 0x0441
    14ce:	8f 5f       	subi	r24, 0xFF	; 255
    14d0:	90 e0       	ldi	r25, 0x00	; 0
    14d2:	b7 01       	movw	r22, r14
    14d4:	0e 94 fb 0e 	call	0x1df6	; 0x1df6 <__divmodhi4>
    14d8:	80 93 41 04 	sts	0x0441, r24
				
				LCD_GoTo(M_DRUGA_LINIA_P1);
    14dc:	61 e0       	ldi	r22, 0x01	; 1
    14de:	80 e0       	ldi	r24, 0x00	; 0
    14e0:	0e 94 15 01 	call	0x22a	; 0x22a <LCD_GoTo>
				for(k=licznik*32;k<16+licznik*32;k++)
    14e4:	c0 91 41 04 	lds	r28, 0x0441
    14e8:	f0 e2       	ldi	r31, 0x20	; 32
    14ea:	cf 9f       	mul	r28, r31
    14ec:	e0 01       	movw	r28, r0
    14ee:	11 24       	eor	r1, r1
    14f0:	ce 01       	movw	r24, r28
    14f2:	40 96       	adiw	r24, 0x10	; 16
    14f4:	c8 17       	cp	r28, r24
    14f6:	d9 07       	cpc	r29, r25
    14f8:	48 f5       	brcc	.+82     	; 0x154c <Dekodowanie_kodow+0x286>
				{
					if (bajty_z_karty[k]==':')
    14fa:	fe 01       	movw	r30, r28
    14fc:	ec 5b       	subi	r30, 0xBC	; 188
    14fe:	fb 4f       	sbci	r31, 0xFB	; 251
    1500:	80 81       	ld	r24, Z
    1502:	8a 33       	cpi	r24, 0x3A	; 58
    1504:	99 f4       	brne	.+38     	; 0x152c <Dekodowanie_kodow+0x266>
    1506:	05 c0       	rjmp	.+10     	; 0x1512 <Dekodowanie_kodow+0x24c>
    1508:	f8 01       	movw	r30, r16
    150a:	81 91       	ld	r24, Z+
    150c:	8f 01       	movw	r16, r30
    150e:	8a 33       	cpi	r24, 0x3A	; 58
    1510:	81 f4       	brne	.+32     	; 0x1532 <Dekodowanie_kodow+0x26c>
					{
						LCD_WriteData(0x20);
    1512:	80 e2       	ldi	r24, 0x20	; 32
    1514:	0e 94 02 01 	call	0x204	; 0x204 <LCD_WriteData>
						LCD_WriteData(0x20);
    1518:	80 e2       	ldi	r24, 0x20	; 32
    151a:	0e 94 02 01 	call	0x204	; 0x204 <LCD_WriteData>
						LCD_WriteData(0x20);
    151e:	80 e2       	ldi	r24, 0x20	; 32
    1520:	0e 94 02 01 	call	0x204	; 0x204 <LCD_WriteData>
						LCD_WriteData(0x20);
    1524:	80 e2       	ldi	r24, 0x20	; 32
    1526:	0e 94 02 01 	call	0x204	; 0x204 <LCD_WriteData>
						break;
    152a:	10 c0       	rjmp	.+32     	; 0x154c <Dekodowanie_kodow+0x286>
    152c:	8e 01       	movw	r16, r28
    152e:	0b 5b       	subi	r16, 0xBB	; 187
    1530:	1b 4f       	sbci	r17, 0xFB	; 251
					}
					LCD_WriteData(bajty_z_karty[k]);
    1532:	0e 94 02 01 	call	0x204	; 0x204 <LCD_WriteData>
			if(!(BUTTON_PIN & (1<<BUTTON_GREEN)))
			{
				licznik = (++licznik)%j;
				
				LCD_GoTo(M_DRUGA_LINIA_P1);
				for(k=licznik*32;k<16+licznik*32;k++)
    1536:	21 96       	adiw	r28, 0x01	; 1
    1538:	80 91 41 04 	lds	r24, 0x0441
    153c:	f0 e2       	ldi	r31, 0x20	; 32
    153e:	8f 9f       	mul	r24, r31
    1540:	c0 01       	movw	r24, r0
    1542:	11 24       	eor	r1, r1
    1544:	40 96       	adiw	r24, 0x10	; 16
    1546:	c8 17       	cp	r28, r24
    1548:	d9 07       	cpc	r29, r25
    154a:	f0 f2       	brcs	.-68     	; 0x1508 <Dekodowanie_kodow+0x242>
					}
					LCD_WriteData(bajty_z_karty[k]);
				}  
			}
		}
		if(!(BUTTON_PIN & (1<<BUTTON_BLUE)))
    154c:	4d 99       	sbic	0x09, 5	; 9
    154e:	31 cf       	rjmp	.-414    	; 0x13b2 <Dekodowanie_kodow+0xec>
    1550:	2f e7       	ldi	r18, 0x7F	; 127
    1552:	88 e3       	ldi	r24, 0x38	; 56
    1554:	91 e0       	ldi	r25, 0x01	; 1
    1556:	21 50       	subi	r18, 0x01	; 1
    1558:	80 40       	sbci	r24, 0x00	; 0
    155a:	90 40       	sbci	r25, 0x00	; 0
    155c:	e1 f7       	brne	.-8      	; 0x1556 <Dekodowanie_kodow+0x290>
    155e:	00 c0       	rjmp	.+0      	; 0x1560 <Dekodowanie_kodow+0x29a>
    1560:	00 00       	nop
		{
			_delay_ms(CZAS_ZWLOKI_PRZYCISKOW_MS);
			if(!(BUTTON_PIN & (1<<BUTTON_BLUE)))
    1562:	4d 99       	sbic	0x09, 5	; 9
    1564:	26 cf       	rjmp	.-436    	; 0x13b2 <Dekodowanie_kodow+0xec>
			{
				licznik = licznik-1;
    1566:	80 91 41 04 	lds	r24, 0x0441
    156a:	81 50       	subi	r24, 0x01	; 1
    156c:	18 f0       	brcs	.+6      	; 0x1574 <Dekodowanie_kodow+0x2ae>
    156e:	80 93 41 04 	sts	0x0441, r24
    1572:	02 c0       	rjmp	.+4      	; 0x1578 <Dekodowanie_kodow+0x2b2>
				if (licznik==0xff)
				{
					licznik = j-1;
    1574:	d0 92 41 04 	sts	0x0441, r13
				}
				
				
				LCD_GoTo(M_DRUGA_LINIA_P1);
    1578:	61 e0       	ldi	r22, 0x01	; 1
    157a:	80 e0       	ldi	r24, 0x00	; 0
    157c:	0e 94 15 01 	call	0x22a	; 0x22a <LCD_GoTo>
				LCD_GoTo(M_DRUGA_LINIA_P1);
    1580:	61 e0       	ldi	r22, 0x01	; 1
    1582:	80 e0       	ldi	r24, 0x00	; 0
    1584:	0e 94 15 01 	call	0x22a	; 0x22a <LCD_GoTo>
				for(k=licznik*32;k<16+licznik*32;k++)
    1588:	00 91 41 04 	lds	r16, 0x0441
    158c:	e0 e2       	ldi	r30, 0x20	; 32
    158e:	0e 9f       	mul	r16, r30
    1590:	80 01       	movw	r16, r0
    1592:	11 24       	eor	r1, r1
    1594:	c8 01       	movw	r24, r16
    1596:	40 96       	adiw	r24, 0x10	; 16
    1598:	08 17       	cp	r16, r24
    159a:	19 07       	cpc	r17, r25
    159c:	08 f0       	brcs	.+2      	; 0x15a0 <Dekodowanie_kodow+0x2da>
    159e:	09 cf       	rjmp	.-494    	; 0x13b2 <Dekodowanie_kodow+0xec>
				{
					if (bajty_z_karty[k]==':')
    15a0:	f8 01       	movw	r30, r16
    15a2:	ec 5b       	subi	r30, 0xBC	; 188
    15a4:	fb 4f       	sbci	r31, 0xFB	; 251
    15a6:	80 81       	ld	r24, Z
    15a8:	8a 33       	cpi	r24, 0x3A	; 58
    15aa:	89 f4       	brne	.+34     	; 0x15ce <Dekodowanie_kodow+0x308>
    15ac:	03 c0       	rjmp	.+6      	; 0x15b4 <Dekodowanie_kodow+0x2ee>
    15ae:	89 91       	ld	r24, Y+
    15b0:	8a 33       	cpi	r24, 0x3A	; 58
    15b2:	81 f4       	brne	.+32     	; 0x15d4 <Dekodowanie_kodow+0x30e>
					{
						LCD_WriteData(0x20);
    15b4:	80 e2       	ldi	r24, 0x20	; 32
    15b6:	0e 94 02 01 	call	0x204	; 0x204 <LCD_WriteData>
						LCD_WriteData(0x20);
    15ba:	80 e2       	ldi	r24, 0x20	; 32
    15bc:	0e 94 02 01 	call	0x204	; 0x204 <LCD_WriteData>
						LCD_WriteData(0x20);
    15c0:	80 e2       	ldi	r24, 0x20	; 32
    15c2:	0e 94 02 01 	call	0x204	; 0x204 <LCD_WriteData>
						LCD_WriteData(0x20);
    15c6:	80 e2       	ldi	r24, 0x20	; 32
    15c8:	0e 94 02 01 	call	0x204	; 0x204 <LCD_WriteData>
						break;
    15cc:	f2 ce       	rjmp	.-540    	; 0x13b2 <Dekodowanie_kodow+0xec>
    15ce:	e8 01       	movw	r28, r16
    15d0:	cb 5b       	subi	r28, 0xBB	; 187
    15d2:	db 4f       	sbci	r29, 0xFB	; 251
					}
					LCD_WriteData(bajty_z_karty[k]);
    15d4:	0e 94 02 01 	call	0x204	; 0x204 <LCD_WriteData>
				}
				
				
				LCD_GoTo(M_DRUGA_LINIA_P1);
				LCD_GoTo(M_DRUGA_LINIA_P1);
				for(k=licznik*32;k<16+licznik*32;k++)
    15d8:	0f 5f       	subi	r16, 0xFF	; 255
    15da:	1f 4f       	sbci	r17, 0xFF	; 255
    15dc:	80 91 41 04 	lds	r24, 0x0441
    15e0:	f0 e2       	ldi	r31, 0x20	; 32
    15e2:	8f 9f       	mul	r24, r31
    15e4:	c0 01       	movw	r24, r0
    15e6:	11 24       	eor	r1, r1
    15e8:	40 96       	adiw	r24, 0x10	; 16
    15ea:	08 17       	cp	r16, r24
    15ec:	19 07       	cpc	r17, r25
    15ee:	f8 f2       	brcs	.-66     	; 0x15ae <Dekodowanie_kodow+0x2e8>
    15f0:	e0 ce       	rjmp	.-576    	; 0x13b2 <Dekodowanie_kodow+0xec>
	Odczyt_danych_z_SD(adres_dodatek,bajty_z_karty);
	LCD_Clear();
	LCD_Home();
	for(k=kody_bledow[licznik]*64%512;k<16+kody_bledow[licznik]*64%512;k++)
	{
		if (bajty_z_karty[k]<0x20)
    15f2:	f8 01       	movw	r30, r16
    15f4:	81 91       	ld	r24, Z+
    15f6:	8f 01       	movw	r16, r30
    15f8:	80 32       	cpi	r24, 0x20	; 32
    15fa:	08 f4       	brcc	.+2      	; 0x15fe <Dekodowanie_kodow+0x338>
    15fc:	a8 c1       	rjmp	.+848    	; 0x194e <Dekodowanie_kodow+0x688>
		{
			j=-1;
			break;
		}
		LCD_WriteData(bajty_z_karty[k]);
    15fe:	0e 94 02 01 	call	0x204	; 0x204 <LCD_WriteData>

	
	Odczyt_danych_z_SD(adres_dodatek,bajty_z_karty);
	LCD_Clear();
	LCD_Home();
	for(k=kody_bledow[licznik]*64%512;k<16+kody_bledow[licznik]*64%512;k++)
    1602:	21 96       	adiw	r28, 0x01	; 1
    1604:	e0 91 41 04 	lds	r30, 0x0441
    1608:	f0 e0       	ldi	r31, 0x00	; 0
    160a:	ed 59       	subi	r30, 0x9D	; 157
    160c:	f9 4f       	sbci	r31, 0xF9	; 249
    160e:	80 81       	ld	r24, Z
    1610:	f0 e4       	ldi	r31, 0x40	; 64
    1612:	8f 9f       	mul	r24, r31
    1614:	c0 01       	movw	r24, r0
    1616:	11 24       	eor	r1, r1
    1618:	80 7c       	andi	r24, 0xC0	; 192
    161a:	91 70       	andi	r25, 0x01	; 1
    161c:	40 96       	adiw	r24, 0x10	; 16
    161e:	c8 17       	cp	r28, r24
    1620:	d9 07       	cpc	r29, r25
    1622:	38 f3       	brcs	.-50     	; 0x15f2 <Dekodowanie_kodow+0x32c>
    1624:	97 c1       	rjmp	.+814    	; 0x1954 <Dekodowanie_kodow+0x68e>
	if (j!=-1)
	{
		LCD_GoTo(M_DRUGA_LINIA_P1);
		for(k=16+kody_bledow[licznik]*64%512;k<32+kody_bledow[licznik]*64%512;k++)
		{
			if (bajty_z_karty[k]<0x20)
    1626:	fe 01       	movw	r30, r28
    1628:	ec 5b       	subi	r30, 0xBC	; 188
    162a:	fb 4f       	sbci	r31, 0xFB	; 251
    162c:	80 81       	ld	r24, Z
    162e:	80 32       	cpi	r24, 0x20	; 32
    1630:	e8 f0       	brcs	.+58     	; 0x166c <Dekodowanie_kodow+0x3a6>
    1632:	0b 5a       	subi	r16, 0xAB	; 171
    1634:	1b 4f       	sbci	r17, 0xFB	; 251
    1636:	05 c0       	rjmp	.+10     	; 0x1642 <Dekodowanie_kodow+0x37c>
    1638:	f8 01       	movw	r30, r16
    163a:	81 91       	ld	r24, Z+
    163c:	8f 01       	movw	r16, r30
    163e:	80 32       	cpi	r24, 0x20	; 32
    1640:	c0 f0       	brcs	.+48     	; 0x1672 <Dekodowanie_kodow+0x3ac>
			{
				j=-1;
				break;
			}
			LCD_WriteData(bajty_z_karty[k]);
    1642:	0e 94 02 01 	call	0x204	; 0x204 <LCD_WriteData>
		LCD_WriteData(bajty_z_karty[k]);
	}
	if (j!=-1)
	{
		LCD_GoTo(M_DRUGA_LINIA_P1);
		for(k=16+kody_bledow[licznik]*64%512;k<32+kody_bledow[licznik]*64%512;k++)
    1646:	21 96       	adiw	r28, 0x01	; 1
    1648:	e0 91 41 04 	lds	r30, 0x0441
    164c:	f0 e0       	ldi	r31, 0x00	; 0
    164e:	ed 59       	subi	r30, 0x9D	; 157
    1650:	f9 4f       	sbci	r31, 0xF9	; 249
    1652:	80 81       	ld	r24, Z
    1654:	f0 e4       	ldi	r31, 0x40	; 64
    1656:	8f 9f       	mul	r24, r31
    1658:	c0 01       	movw	r24, r0
    165a:	11 24       	eor	r1, r1
    165c:	80 7c       	andi	r24, 0xC0	; 192
    165e:	91 70       	andi	r25, 0x01	; 1
    1660:	80 96       	adiw	r24, 0x20	; 32
    1662:	c8 17       	cp	r28, r24
    1664:	d9 07       	cpc	r29, r25
    1666:	40 f3       	brcs	.-48     	; 0x1638 <Dekodowanie_kodow+0x372>
    1668:	71 2c       	mov	r7, r1
    166a:	05 c0       	rjmp	.+10     	; 0x1676 <Dekodowanie_kodow+0x3b0>
		{
			if (bajty_z_karty[k]<0x20)
			{
				j=-1;
    166c:	77 24       	eor	r7, r7
    166e:	7a 94       	dec	r7
    1670:	02 c0       	rjmp	.+4      	; 0x1676 <Dekodowanie_kodow+0x3b0>
    1672:	77 24       	eor	r7, r7
    1674:	7a 94       	dec	r7
    1676:	2f e7       	ldi	r18, 0x7F	; 127
    1678:	8a e1       	ldi	r24, 0x1A	; 26
    167a:	96 e0       	ldi	r25, 0x06	; 6
    167c:	21 50       	subi	r18, 0x01	; 1
    167e:	80 40       	sbci	r24, 0x00	; 0
    1680:	90 40       	sbci	r25, 0x00	; 0
    1682:	e1 f7       	brne	.-8      	; 0x167c <Dekodowanie_kodow+0x3b6>
    1684:	00 c0       	rjmp	.+0      	; 0x1686 <Dekodowanie_kodow+0x3c0>
    1686:	00 00       	nop
					LCD_GoTo(M_DRUGA_LINIA_P1);
					for(k=16+16*j+kody_bledow[licznik]*64%512;k<32+16*j+kody_bledow[licznik]*64%512;k++)
					{
						if (bajty_z_karty[k]<0x20)
						{
							j=-1;
    1688:	66 24       	eor	r6, r6
    168a:	6a 94       	dec	r6
			if(!(BUTTON_PIN & (1<<BUTTON_BLUE)))
			{
				j=0;
				licznik = (++licznik)%ilosc_kodow_bledow;
				zmienna_16b = (kody_bledow[licznik]*64/512)*512;		//	uzyskanie odsuniecia, 64 znaki na kod i  512 na odczyt. dzielimy 512 aby uzyskac numer klasteru i potem mnozymy w celu otrzymania jego adresu
				adres_dodatek[0] = adres_tablicy[0]+(uint8_t)(zmienna_16b>>24);
    168c:	0f 2e       	mov	r0, r31
    168e:	ff e5       	ldi	r31, 0x5F	; 95
    1690:	cf 2e       	mov	r12, r31
    1692:	f6 e0       	ldi	r31, 0x06	; 6
    1694:	df 2e       	mov	r13, r31
    1696:	f0 2d       	mov	r31, r0
    1698:	0f 2e       	mov	r0, r31
    169a:	f7 e5       	ldi	r31, 0x57	; 87
    169c:	af 2e       	mov	r10, r31
    169e:	f6 e0       	ldi	r31, 0x06	; 6
    16a0:	bf 2e       	mov	r11, r31
    16a2:	f0 2d       	mov	r31, r0
	_delay_ms(500);
	
	
	while(1)
	{
		if(!(BUTTON_PIN & (1<<BUTTON_RED)))
    16a4:	4f 99       	sbic	0x09, 7	; 9
    16a6:	0b c0       	rjmp	.+22     	; 0x16be <Dekodowanie_kodow+0x3f8>
    16a8:	ef e7       	ldi	r30, 0x7F	; 127
    16aa:	f8 e3       	ldi	r31, 0x38	; 56
    16ac:	21 e0       	ldi	r18, 0x01	; 1
    16ae:	e1 50       	subi	r30, 0x01	; 1
    16b0:	f0 40       	sbci	r31, 0x00	; 0
    16b2:	20 40       	sbci	r18, 0x00	; 0
    16b4:	e1 f7       	brne	.-8      	; 0x16ae <Dekodowanie_kodow+0x3e8>
    16b6:	00 c0       	rjmp	.+0      	; 0x16b8 <Dekodowanie_kodow+0x3f2>
    16b8:	00 00       	nop
		{
			_delay_ms(CZAS_ZWLOKI_PRZYCISKOW_MS);
			if(!(BUTTON_PIN & (1<<BUTTON_RED)))
    16ba:	4f 9b       	sbis	0x09, 7	; 9
    16bc:	83 c1       	rjmp	.+774    	; 0x19c4 <Dekodowanie_kodow+0x6fe>
			{
				return M_ZAKONCZ;
			}
		}
		
		if(!(BUTTON_PIN & (1<<BUTTON_GREEN)))
    16be:	4e 99       	sbic	0x09, 6	; 9
    16c0:	a0 c0       	rjmp	.+320    	; 0x1802 <Dekodowanie_kodow+0x53c>
    16c2:	8f e7       	ldi	r24, 0x7F	; 127
    16c4:	98 e3       	ldi	r25, 0x38	; 56
    16c6:	e1 e0       	ldi	r30, 0x01	; 1
    16c8:	81 50       	subi	r24, 0x01	; 1
    16ca:	90 40       	sbci	r25, 0x00	; 0
    16cc:	e0 40       	sbci	r30, 0x00	; 0
    16ce:	e1 f7       	brne	.-8      	; 0x16c8 <Dekodowanie_kodow+0x402>
    16d0:	00 c0       	rjmp	.+0      	; 0x16d2 <Dekodowanie_kodow+0x40c>
    16d2:	00 00       	nop
		{
			_delay_ms(CZAS_ZWLOKI_PRZYCISKOW_MS);
			if(!(BUTTON_PIN & (1<<BUTTON_GREEN)))
    16d4:	4e 99       	sbic	0x09, 6	; 9
    16d6:	95 c0       	rjmp	.+298    	; 0x1802 <Dekodowanie_kodow+0x53c>
			{
				LCD_Clear();
    16d8:	0e 94 1d 01 	call	0x23a	; 0x23a <LCD_Clear>
				LCD_Home();
    16dc:	0e 94 27 01 	call	0x24e	; 0x24e <LCD_Home>
				j=j+1;
    16e0:	73 94       	inc	r7
				
				for(k=16*j+kody_bledow[licznik]*64%512;k<16+16*j+kody_bledow[licznik]*64%512;k++)
    16e2:	f7 2d       	mov	r31, r7
    16e4:	20 e1       	ldi	r18, 0x10	; 16
    16e6:	f2 02       	muls	r31, r18
    16e8:	70 01       	movw	r14, r0
    16ea:	11 24       	eor	r1, r1
    16ec:	e0 91 41 04 	lds	r30, 0x0441
    16f0:	f0 e0       	ldi	r31, 0x00	; 0
    16f2:	ed 59       	subi	r30, 0x9D	; 157
    16f4:	f9 4f       	sbci	r31, 0xF9	; 249
    16f6:	80 81       	ld	r24, Z
    16f8:	e0 e4       	ldi	r30, 0x40	; 64
    16fa:	8e 9f       	mul	r24, r30
    16fc:	c0 01       	movw	r24, r0
    16fe:	11 24       	eor	r1, r1
    1700:	80 7c       	andi	r24, 0xC0	; 192
    1702:	91 70       	andi	r25, 0x01	; 1
    1704:	47 01       	movw	r8, r14
    1706:	88 0e       	add	r8, r24
    1708:	99 1e       	adc	r9, r25
    170a:	e7 01       	movw	r28, r14
    170c:	60 96       	adiw	r28, 0x10	; 16
    170e:	8c 0f       	add	r24, r28
    1710:	9d 1f       	adc	r25, r29
    1712:	88 16       	cp	r8, r24
    1714:	99 06       	cpc	r9, r25
    1716:	38 f5       	brcc	.+78     	; 0x1766 <Dekodowanie_kodow+0x4a0>
				{
					if (bajty_z_karty[k]<0x20)
    1718:	f4 01       	movw	r30, r8
    171a:	ec 5b       	subi	r30, 0xBC	; 188
    171c:	fb 4f       	sbci	r31, 0xFB	; 251
    171e:	80 81       	ld	r24, Z
    1720:	80 32       	cpi	r24, 0x20	; 32
    1722:	08 f4       	brcc	.+2      	; 0x1726 <Dekodowanie_kodow+0x460>
    1724:	31 c1       	rjmp	.+610    	; 0x1988 <Dekodowanie_kodow+0x6c2>
    1726:	84 01       	movw	r16, r8
    1728:	0b 5b       	subi	r16, 0xBB	; 187
    172a:	1b 4f       	sbci	r17, 0xFB	; 251
    172c:	06 c0       	rjmp	.+12     	; 0x173a <Dekodowanie_kodow+0x474>
    172e:	f8 01       	movw	r30, r16
    1730:	81 91       	ld	r24, Z+
    1732:	8f 01       	movw	r16, r30
    1734:	80 32       	cpi	r24, 0x20	; 32
    1736:	08 f4       	brcc	.+2      	; 0x173a <Dekodowanie_kodow+0x474>
    1738:	27 c1       	rjmp	.+590    	; 0x1988 <Dekodowanie_kodow+0x6c2>
					{
						j=-1;
						break;
					}
					LCD_WriteData(bajty_z_karty[k]);
    173a:	0e 94 02 01 	call	0x204	; 0x204 <LCD_WriteData>
			{
				LCD_Clear();
				LCD_Home();
				j=j+1;
				
				for(k=16*j+kody_bledow[licznik]*64%512;k<16+16*j+kody_bledow[licznik]*64%512;k++)
    173e:	ff ef       	ldi	r31, 0xFF	; 255
    1740:	8f 1a       	sub	r8, r31
    1742:	9f 0a       	sbc	r9, r31
    1744:	e0 91 41 04 	lds	r30, 0x0441
    1748:	f0 e0       	ldi	r31, 0x00	; 0
    174a:	ed 59       	subi	r30, 0x9D	; 157
    174c:	f9 4f       	sbci	r31, 0xF9	; 249
    174e:	80 81       	ld	r24, Z
    1750:	20 e4       	ldi	r18, 0x40	; 64
    1752:	82 9f       	mul	r24, r18
    1754:	c0 01       	movw	r24, r0
    1756:	11 24       	eor	r1, r1
    1758:	80 7c       	andi	r24, 0xC0	; 192
    175a:	91 70       	andi	r25, 0x01	; 1
    175c:	8c 0f       	add	r24, r28
    175e:	9d 1f       	adc	r25, r29
    1760:	88 16       	cp	r8, r24
    1762:	99 06       	cpc	r9, r25
    1764:	20 f3       	brcs	.-56     	; 0x172e <Dekodowanie_kodow+0x468>
						j=-1;
						break;
					}
					LCD_WriteData(bajty_z_karty[k]);
				}
				if (j!=-1)
    1766:	8f ef       	ldi	r24, 0xFF	; 255
    1768:	78 16       	cp	r7, r24
    176a:	09 f4       	brne	.+2      	; 0x176e <Dekodowanie_kodow+0x4a8>
    176c:	41 c0       	rjmp	.+130    	; 0x17f0 <Dekodowanie_kodow+0x52a>
				{
					LCD_GoTo(M_DRUGA_LINIA_P1);
    176e:	61 e0       	ldi	r22, 0x01	; 1
    1770:	80 e0       	ldi	r24, 0x00	; 0
    1772:	0e 94 15 01 	call	0x22a	; 0x22a <LCD_GoTo>
					for(k=16+16*j+kody_bledow[licznik]*64%512;k<32+16*j+kody_bledow[licznik]*64%512;k++)
    1776:	e0 91 41 04 	lds	r30, 0x0441
    177a:	f0 e0       	ldi	r31, 0x00	; 0
    177c:	ed 59       	subi	r30, 0x9D	; 157
    177e:	f9 4f       	sbci	r31, 0xF9	; 249
    1780:	80 81       	ld	r24, Z
    1782:	e0 e4       	ldi	r30, 0x40	; 64
    1784:	8e 9f       	mul	r24, r30
    1786:	c0 01       	movw	r24, r0
    1788:	11 24       	eor	r1, r1
    178a:	80 7c       	andi	r24, 0xC0	; 192
    178c:	91 70       	andi	r25, 0x01	; 1
    178e:	c8 0f       	add	r28, r24
    1790:	d9 1f       	adc	r29, r25
    1792:	f0 e2       	ldi	r31, 0x20	; 32
    1794:	ef 0e       	add	r14, r31
    1796:	f1 1c       	adc	r15, r1
    1798:	8e 0d       	add	r24, r14
    179a:	9f 1d       	adc	r25, r15
    179c:	c8 17       	cp	r28, r24
    179e:	d9 07       	cpc	r29, r25
    17a0:	38 f5       	brcc	.+78     	; 0x17f0 <Dekodowanie_kodow+0x52a>
					{
						if (bajty_z_karty[k]<0x20)
    17a2:	fe 01       	movw	r30, r28
    17a4:	ec 5b       	subi	r30, 0xBC	; 188
    17a6:	fb 4f       	sbci	r31, 0xFB	; 251
    17a8:	80 81       	ld	r24, Z
    17aa:	80 32       	cpi	r24, 0x20	; 32
    17ac:	f0 f0       	brcs	.+60     	; 0x17ea <Dekodowanie_kodow+0x524>
    17ae:	8e 01       	movw	r16, r28
    17b0:	0b 5b       	subi	r16, 0xBB	; 187
    17b2:	1b 4f       	sbci	r17, 0xFB	; 251
    17b4:	05 c0       	rjmp	.+10     	; 0x17c0 <Dekodowanie_kodow+0x4fa>
    17b6:	f8 01       	movw	r30, r16
    17b8:	81 91       	ld	r24, Z+
    17ba:	8f 01       	movw	r16, r30
    17bc:	80 32       	cpi	r24, 0x20	; 32
    17be:	b8 f0       	brcs	.+46     	; 0x17ee <Dekodowanie_kodow+0x528>
						{
							j=-1;
							break;
						}
						LCD_WriteData(bajty_z_karty[k]);
    17c0:	0e 94 02 01 	call	0x204	; 0x204 <LCD_WriteData>
					LCD_WriteData(bajty_z_karty[k]);
				}
				if (j!=-1)
				{
					LCD_GoTo(M_DRUGA_LINIA_P1);
					for(k=16+16*j+kody_bledow[licznik]*64%512;k<32+16*j+kody_bledow[licznik]*64%512;k++)
    17c4:	21 96       	adiw	r28, 0x01	; 1
    17c6:	e0 91 41 04 	lds	r30, 0x0441
    17ca:	f0 e0       	ldi	r31, 0x00	; 0
    17cc:	ed 59       	subi	r30, 0x9D	; 157
    17ce:	f9 4f       	sbci	r31, 0xF9	; 249
    17d0:	80 81       	ld	r24, Z
    17d2:	f0 e4       	ldi	r31, 0x40	; 64
    17d4:	8f 9f       	mul	r24, r31
    17d6:	c0 01       	movw	r24, r0
    17d8:	11 24       	eor	r1, r1
    17da:	80 7c       	andi	r24, 0xC0	; 192
    17dc:	91 70       	andi	r25, 0x01	; 1
    17de:	8e 0d       	add	r24, r14
    17e0:	9f 1d       	adc	r25, r15
    17e2:	c8 17       	cp	r28, r24
    17e4:	d9 07       	cpc	r29, r25
    17e6:	38 f3       	brcs	.-50     	; 0x17b6 <Dekodowanie_kodow+0x4f0>
    17e8:	03 c0       	rjmp	.+6      	; 0x17f0 <Dekodowanie_kodow+0x52a>
					{
						if (bajty_z_karty[k]<0x20)
						{
							j=-1;
    17ea:	76 2c       	mov	r7, r6
    17ec:	01 c0       	rjmp	.+2      	; 0x17f0 <Dekodowanie_kodow+0x52a>
    17ee:	76 2c       	mov	r7, r6
    17f0:	2f e7       	ldi	r18, 0x7F	; 127
    17f2:	8a e1       	ldi	r24, 0x1A	; 26
    17f4:	96 e0       	ldi	r25, 0x06	; 6
    17f6:	21 50       	subi	r18, 0x01	; 1
    17f8:	80 40       	sbci	r24, 0x00	; 0
    17fa:	90 40       	sbci	r25, 0x00	; 0
    17fc:	e1 f7       	brne	.-8      	; 0x17f6 <Dekodowanie_kodow+0x530>
    17fe:	00 c0       	rjmp	.+0      	; 0x1800 <Dekodowanie_kodow+0x53a>
    1800:	00 00       	nop
					}
				}
				_delay_ms(500);
			}
		}
		if(!(BUTTON_PIN & (1<<BUTTON_BLUE)))
    1802:	4d 99       	sbic	0x09, 5	; 9
    1804:	4f cf       	rjmp	.-354    	; 0x16a4 <Dekodowanie_kodow+0x3de>
    1806:	ef e7       	ldi	r30, 0x7F	; 127
    1808:	f8 e3       	ldi	r31, 0x38	; 56
    180a:	21 e0       	ldi	r18, 0x01	; 1
    180c:	e1 50       	subi	r30, 0x01	; 1
    180e:	f0 40       	sbci	r31, 0x00	; 0
    1810:	20 40       	sbci	r18, 0x00	; 0
    1812:	e1 f7       	brne	.-8      	; 0x180c <Dekodowanie_kodow+0x546>
    1814:	00 c0       	rjmp	.+0      	; 0x1816 <Dekodowanie_kodow+0x550>
    1816:	00 00       	nop
		{
			_delay_ms(CZAS_ZWLOKI_PRZYCISKOW_MS);
			if(!(BUTTON_PIN & (1<<BUTTON_BLUE)))
    1818:	4d 99       	sbic	0x09, 5	; 9
    181a:	44 cf       	rjmp	.-376    	; 0x16a4 <Dekodowanie_kodow+0x3de>
			{
				j=0;
				licznik = (++licznik)%ilosc_kodow_bledow;
    181c:	80 91 41 04 	lds	r24, 0x0441
    1820:	8f 5f       	subi	r24, 0xFF	; 255
    1822:	60 91 40 04 	lds	r22, 0x0440
    1826:	0e 94 ef 0e 	call	0x1dde	; 0x1dde <__udivmodqi4>
    182a:	90 93 41 04 	sts	0x0441, r25
				zmienna_16b = (kody_bledow[licznik]*64/512)*512;		//	uzyskanie odsuniecia, 64 znaki na kod i  512 na odczyt. dzielimy 512 aby uzyskac numer klasteru i potem mnozymy w celu otrzymania jego adresu
    182e:	e9 2f       	mov	r30, r25
    1830:	f0 e0       	ldi	r31, 0x00	; 0
    1832:	ed 59       	subi	r30, 0x9D	; 157
    1834:	f9 4f       	sbci	r31, 0xF9	; 249
    1836:	80 81       	ld	r24, Z
    1838:	e0 e4       	ldi	r30, 0x40	; 64
    183a:	8e 9f       	mul	r24, r30
    183c:	c0 01       	movw	r24, r0
    183e:	11 24       	eor	r1, r1
    1840:	89 2f       	mov	r24, r25
    1842:	8e 7f       	andi	r24, 0xFE	; 254
    1844:	10 92 5d 06 	sts	0x065D, r1
    1848:	80 93 5e 06 	sts	0x065E, r24
				adres_dodatek[0] = adres_tablicy[0]+(uint8_t)(zmienna_16b>>24);
    184c:	f5 01       	movw	r30, r10
    184e:	90 81       	ld	r25, Z
    1850:	f6 01       	movw	r30, r12
    1852:	90 83       	st	Z, r25
				adres_dodatek[1] = adres_tablicy[1]+(uint8_t)(zmienna_16b>>16);
    1854:	f5 01       	movw	r30, r10
    1856:	91 81       	ldd	r25, Z+1	; 0x01
    1858:	f6 01       	movw	r30, r12
    185a:	91 83       	std	Z+1, r25	; 0x01
				adres_dodatek[2] = adres_tablicy[2]+(uint8_t)(zmienna_16b>>8);
    185c:	f5 01       	movw	r30, r10
    185e:	92 81       	ldd	r25, Z+2	; 0x02
    1860:	89 0f       	add	r24, r25
    1862:	f6 01       	movw	r30, r12
    1864:	82 83       	std	Z+2, r24	; 0x02
				adres_dodatek[3] = adres_tablicy[3]+(uint8_t)(zmienna_16b);
    1866:	f5 01       	movw	r30, r10
    1868:	83 81       	ldd	r24, Z+3	; 0x03
    186a:	f6 01       	movw	r30, r12
    186c:	83 83       	std	Z+3, r24	; 0x03

				
				Odczyt_danych_z_SD(adres_dodatek,bajty_z_karty);
    186e:	64 e4       	ldi	r22, 0x44	; 68
    1870:	74 e0       	ldi	r23, 0x04	; 4
    1872:	c6 01       	movw	r24, r12
    1874:	0e 94 37 02 	call	0x46e	; 0x46e <Odczyt_danych_z_SD>
				LCD_Clear();
    1878:	0e 94 1d 01 	call	0x23a	; 0x23a <LCD_Clear>
				LCD_Home();
    187c:	0e 94 27 01 	call	0x24e	; 0x24e <LCD_Home>
				for(k=kody_bledow[licznik]*64%512;k<16+kody_bledow[licznik]*64%512;k++)
    1880:	e0 91 41 04 	lds	r30, 0x0441
    1884:	f0 e0       	ldi	r31, 0x00	; 0
    1886:	ed 59       	subi	r30, 0x9D	; 157
    1888:	f9 4f       	sbci	r31, 0xF9	; 249
    188a:	c0 81       	ld	r28, Z
    188c:	f0 e4       	ldi	r31, 0x40	; 64
    188e:	cf 9f       	mul	r28, r31
    1890:	e0 01       	movw	r28, r0
    1892:	11 24       	eor	r1, r1
    1894:	c0 7c       	andi	r28, 0xC0	; 192
    1896:	d1 70       	andi	r29, 0x01	; 1
    1898:	ce 01       	movw	r24, r28
    189a:	40 96       	adiw	r24, 0x10	; 16
    189c:	c8 17       	cp	r28, r24
    189e:	d9 07       	cpc	r29, r25
    18a0:	08 f0       	brcs	.+2      	; 0x18a4 <Dekodowanie_kodow+0x5de>
    18a2:	74 c0       	rjmp	.+232    	; 0x198c <Dekodowanie_kodow+0x6c6>
				{
					if (bajty_z_karty[k]<0x20)
    18a4:	fe 01       	movw	r30, r28
    18a6:	ec 5b       	subi	r30, 0xBC	; 188
    18a8:	fb 4f       	sbci	r31, 0xFB	; 251
    18aa:	80 81       	ld	r24, Z
    18ac:	80 32       	cpi	r24, 0x20	; 32
    18ae:	08 f4       	brcc	.+2      	; 0x18b2 <Dekodowanie_kodow+0x5ec>
    18b0:	87 c0       	rjmp	.+270    	; 0x19c0 <Dekodowanie_kodow+0x6fa>
    18b2:	8e 01       	movw	r16, r28
    18b4:	0b 5b       	subi	r16, 0xBB	; 187
    18b6:	1b 4f       	sbci	r17, 0xFB	; 251
    18b8:	06 c0       	rjmp	.+12     	; 0x18c6 <Dekodowanie_kodow+0x600>
    18ba:	f8 01       	movw	r30, r16
    18bc:	81 91       	ld	r24, Z+
    18be:	8f 01       	movw	r16, r30
    18c0:	80 32       	cpi	r24, 0x20	; 32
    18c2:	08 f4       	brcc	.+2      	; 0x18c6 <Dekodowanie_kodow+0x600>
    18c4:	7d c0       	rjmp	.+250    	; 0x19c0 <Dekodowanie_kodow+0x6fa>
					{
						j=-1;
						break;
					}
					LCD_WriteData(bajty_z_karty[k]);
    18c6:	0e 94 02 01 	call	0x204	; 0x204 <LCD_WriteData>

				
				Odczyt_danych_z_SD(adres_dodatek,bajty_z_karty);
				LCD_Clear();
				LCD_Home();
				for(k=kody_bledow[licznik]*64%512;k<16+kody_bledow[licznik]*64%512;k++)
    18ca:	21 96       	adiw	r28, 0x01	; 1
    18cc:	e0 91 41 04 	lds	r30, 0x0441
    18d0:	f0 e0       	ldi	r31, 0x00	; 0
    18d2:	ed 59       	subi	r30, 0x9D	; 157
    18d4:	f9 4f       	sbci	r31, 0xF9	; 249
    18d6:	80 81       	ld	r24, Z
    18d8:	f0 e4       	ldi	r31, 0x40	; 64
    18da:	8f 9f       	mul	r24, r31
    18dc:	c0 01       	movw	r24, r0
    18de:	11 24       	eor	r1, r1
    18e0:	80 7c       	andi	r24, 0xC0	; 192
    18e2:	91 70       	andi	r25, 0x01	; 1
    18e4:	40 96       	adiw	r24, 0x10	; 16
    18e6:	c8 17       	cp	r28, r24
    18e8:	d9 07       	cpc	r29, r25
    18ea:	38 f3       	brcs	.-50     	; 0x18ba <Dekodowanie_kodow+0x5f4>
    18ec:	4f c0       	rjmp	.+158    	; 0x198c <Dekodowanie_kodow+0x6c6>
				if (j!=-1)
				{
					LCD_GoTo(M_DRUGA_LINIA_P1);
					for(k=16+kody_bledow[licznik]*64%512;k<32+kody_bledow[licznik]*64%512;k++)
					{
						if (bajty_z_karty[k]<0x20)
    18ee:	fe 01       	movw	r30, r28
    18f0:	ec 5b       	subi	r30, 0xBC	; 188
    18f2:	fb 4f       	sbci	r31, 0xFB	; 251
    18f4:	80 81       	ld	r24, Z
    18f6:	80 32       	cpi	r24, 0x20	; 32
    18f8:	e8 f0       	brcs	.+58     	; 0x1934 <Dekodowanie_kodow+0x66e>
    18fa:	0b 5a       	subi	r16, 0xAB	; 171
    18fc:	1b 4f       	sbci	r17, 0xFB	; 251
    18fe:	05 c0       	rjmp	.+10     	; 0x190a <Dekodowanie_kodow+0x644>
    1900:	f8 01       	movw	r30, r16
    1902:	81 91       	ld	r24, Z+
    1904:	8f 01       	movw	r16, r30
    1906:	80 32       	cpi	r24, 0x20	; 32
    1908:	b8 f0       	brcs	.+46     	; 0x1938 <Dekodowanie_kodow+0x672>
						{
							j=-1;
							break;
						}
						LCD_WriteData(bajty_z_karty[k]);
    190a:	0e 94 02 01 	call	0x204	; 0x204 <LCD_WriteData>
				}

				if (j!=-1)
				{
					LCD_GoTo(M_DRUGA_LINIA_P1);
					for(k=16+kody_bledow[licznik]*64%512;k<32+kody_bledow[licznik]*64%512;k++)
    190e:	21 96       	adiw	r28, 0x01	; 1
    1910:	e0 91 41 04 	lds	r30, 0x0441
    1914:	f0 e0       	ldi	r31, 0x00	; 0
    1916:	ed 59       	subi	r30, 0x9D	; 157
    1918:	f9 4f       	sbci	r31, 0xF9	; 249
    191a:	80 81       	ld	r24, Z
    191c:	f0 e4       	ldi	r31, 0x40	; 64
    191e:	8f 9f       	mul	r24, r31
    1920:	c0 01       	movw	r24, r0
    1922:	11 24       	eor	r1, r1
    1924:	80 7c       	andi	r24, 0xC0	; 192
    1926:	91 70       	andi	r25, 0x01	; 1
    1928:	80 96       	adiw	r24, 0x20	; 32
    192a:	c8 17       	cp	r28, r24
    192c:	d9 07       	cpc	r29, r25
    192e:	40 f3       	brcs	.-48     	; 0x1900 <Dekodowanie_kodow+0x63a>
    1930:	71 2c       	mov	r7, r1
    1932:	03 c0       	rjmp	.+6      	; 0x193a <Dekodowanie_kodow+0x674>
					{
						if (bajty_z_karty[k]<0x20)
						{
							j=-1;
    1934:	76 2c       	mov	r7, r6
    1936:	01 c0       	rjmp	.+2      	; 0x193a <Dekodowanie_kodow+0x674>
    1938:	76 2c       	mov	r7, r6
    193a:	2f e7       	ldi	r18, 0x7F	; 127
    193c:	8a e1       	ldi	r24, 0x1A	; 26
    193e:	96 e0       	ldi	r25, 0x06	; 6
    1940:	21 50       	subi	r18, 0x01	; 1
    1942:	80 40       	sbci	r24, 0x00	; 0
    1944:	90 40       	sbci	r25, 0x00	; 0
    1946:	e1 f7       	brne	.-8      	; 0x1940 <Dekodowanie_kodow+0x67a>
    1948:	00 c0       	rjmp	.+0      	; 0x194a <Dekodowanie_kodow+0x684>
    194a:	00 00       	nop
    194c:	ab ce       	rjmp	.-682    	; 0x16a4 <Dekodowanie_kodow+0x3de>
	return M_ZAKONCZ;
}	

#else
uint8_t Dekodowanie_kodow(void)
{	int8_t j=0;
    194e:	77 24       	eor	r7, r7
    1950:	7a 94       	dec	r7
    1952:	91 ce       	rjmp	.-734    	; 0x1676 <Dekodowanie_kodow+0x3b0>
		}
		LCD_WriteData(bajty_z_karty[k]);
	}
	if (j!=-1)
	{
		LCD_GoTo(M_DRUGA_LINIA_P1);
    1954:	61 e0       	ldi	r22, 0x01	; 1
    1956:	80 e0       	ldi	r24, 0x00	; 0
    1958:	0e 94 15 01 	call	0x22a	; 0x22a <LCD_GoTo>
		for(k=16+kody_bledow[licznik]*64%512;k<32+kody_bledow[licznik]*64%512;k++)
    195c:	e0 91 41 04 	lds	r30, 0x0441
    1960:	f0 e0       	ldi	r31, 0x00	; 0
    1962:	ed 59       	subi	r30, 0x9D	; 157
    1964:	f9 4f       	sbci	r31, 0xF9	; 249
    1966:	00 81       	ld	r16, Z
    1968:	e0 e4       	ldi	r30, 0x40	; 64
    196a:	0e 9f       	mul	r16, r30
    196c:	80 01       	movw	r16, r0
    196e:	11 24       	eor	r1, r1
    1970:	00 7c       	andi	r16, 0xC0	; 192
    1972:	11 70       	andi	r17, 0x01	; 1
    1974:	e8 01       	movw	r28, r16
    1976:	60 96       	adiw	r28, 0x10	; 16
    1978:	c8 01       	movw	r24, r16
    197a:	80 96       	adiw	r24, 0x20	; 32
    197c:	c8 17       	cp	r28, r24
    197e:	d9 07       	cpc	r29, r25
    1980:	08 f4       	brcc	.+2      	; 0x1984 <Dekodowanie_kodow+0x6be>
    1982:	51 ce       	rjmp	.-862    	; 0x1626 <Dekodowanie_kodow+0x360>
    1984:	71 2c       	mov	r7, r1
    1986:	77 ce       	rjmp	.-786    	; 0x1676 <Dekodowanie_kodow+0x3b0>
					LCD_GoTo(M_DRUGA_LINIA_P1);
					for(k=16+16*j+kody_bledow[licznik]*64%512;k<32+16*j+kody_bledow[licznik]*64%512;k++)
					{
						if (bajty_z_karty[k]<0x20)
						{
							j=-1;
    1988:	76 2c       	mov	r7, r6
    198a:	32 cf       	rjmp	.-412    	; 0x17f0 <Dekodowanie_kodow+0x52a>
					LCD_WriteData(bajty_z_karty[k]);
				}

				if (j!=-1)
				{
					LCD_GoTo(M_DRUGA_LINIA_P1);
    198c:	61 e0       	ldi	r22, 0x01	; 1
    198e:	80 e0       	ldi	r24, 0x00	; 0
    1990:	0e 94 15 01 	call	0x22a	; 0x22a <LCD_GoTo>
					for(k=16+kody_bledow[licznik]*64%512;k<32+kody_bledow[licznik]*64%512;k++)
    1994:	e0 91 41 04 	lds	r30, 0x0441
    1998:	f0 e0       	ldi	r31, 0x00	; 0
    199a:	ed 59       	subi	r30, 0x9D	; 157
    199c:	f9 4f       	sbci	r31, 0xF9	; 249
    199e:	00 81       	ld	r16, Z
    19a0:	f0 e4       	ldi	r31, 0x40	; 64
    19a2:	0f 9f       	mul	r16, r31
    19a4:	80 01       	movw	r16, r0
    19a6:	11 24       	eor	r1, r1
    19a8:	00 7c       	andi	r16, 0xC0	; 192
    19aa:	11 70       	andi	r17, 0x01	; 1
    19ac:	e8 01       	movw	r28, r16
    19ae:	60 96       	adiw	r28, 0x10	; 16
    19b0:	c8 01       	movw	r24, r16
    19b2:	80 96       	adiw	r24, 0x20	; 32
    19b4:	c8 17       	cp	r28, r24
    19b6:	d9 07       	cpc	r29, r25
    19b8:	08 f4       	brcc	.+2      	; 0x19bc <Dekodowanie_kodow+0x6f6>
    19ba:	99 cf       	rjmp	.-206    	; 0x18ee <Dekodowanie_kodow+0x628>
    19bc:	71 2c       	mov	r7, r1
    19be:	bd cf       	rjmp	.-134    	; 0x193a <Dekodowanie_kodow+0x674>
					LCD_GoTo(M_DRUGA_LINIA_P1);
					for(k=16+16*j+kody_bledow[licznik]*64%512;k<32+16*j+kody_bledow[licznik]*64%512;k++)
					{
						if (bajty_z_karty[k]<0x20)
						{
							j=-1;
    19c0:	76 2c       	mov	r7, r6
    19c2:	bb cf       	rjmp	.-138    	; 0x193a <Dekodowanie_kodow+0x674>




	return M_ZAKONCZ;
}
    19c4:	86 e0       	ldi	r24, 0x06	; 6
    19c6:	df 91       	pop	r29
    19c8:	cf 91       	pop	r28
    19ca:	1f 91       	pop	r17
    19cc:	0f 91       	pop	r16
    19ce:	ff 90       	pop	r15
    19d0:	ef 90       	pop	r14
    19d2:	df 90       	pop	r13
    19d4:	cf 90       	pop	r12
    19d6:	bf 90       	pop	r11
    19d8:	af 90       	pop	r10
    19da:	9f 90       	pop	r9
    19dc:	8f 90       	pop	r8
    19de:	7f 90       	pop	r7
    19e0:	6f 90       	pop	r6
    19e2:	08 95       	ret

000019e4 <main>:

#include "main.h" 

int main(void)
{
	Ustaw_ADC();
    19e4:	0e 94 d1 0d 	call	0x1ba2	; 0x1ba2 <Ustaw_ADC>
	Ustaw_porty();
    19e8:	0e 94 c8 0d 	call	0x1b90	; 0x1b90 <Ustaw_porty>
	LCD_Initalize();
    19ec:	0e 94 31 01 	call	0x262	; 0x262 <LCD_Initalize>
	czas_przerw = (uint16_t)3000;
	*/
	
	//	Wczytanie czasów z eepromu
	///*
	czas_konca = eeprom_read_word((const uint16_t *) EEPROM_ADR_CZAS_KONCA);
    19f0:	82 e0       	ldi	r24, 0x02	; 2
    19f2:	90 e0       	ldi	r25, 0x00	; 0
    19f4:	0e 94 d9 11 	call	0x23b2	; 0x23b2 <eeprom_read_word>
    19f8:	90 93 45 06 	sts	0x0645, r25
    19fc:	80 93 44 06 	sts	0x0644, r24
	czas_jednosci = eeprom_read_word((const uint16_t *) EEPROM_ADR_CZAS_JEDNOSCI);
    1a00:	84 e0       	ldi	r24, 0x04	; 4
    1a02:	90 e0       	ldi	r25, 0x00	; 0
    1a04:	0e 94 d9 11 	call	0x23b2	; 0x23b2 <eeprom_read_word>
    1a08:	90 93 70 06 	sts	0x0670, r25
    1a0c:	80 93 6f 06 	sts	0x066F, r24
	czas_przerw = eeprom_read_word((const uint16_t *) EEPROM_ADR_CZAS_PRZERW);
    1a10:	86 e0       	ldi	r24, 0x06	; 6
    1a12:	90 e0       	ldi	r25, 0x00	; 0
    1a14:	0e 94 d9 11 	call	0x23b2	; 0x23b2 <eeprom_read_word>
    1a18:	90 93 43 04 	sts	0x0443, r25
    1a1c:	80 93 42 04 	sts	0x0442, r24
	 //*/

	 //	Pêtla g³ówna
	while (1) 
    {
		switch (licznik)
    1a20:	e0 91 41 04 	lds	r30, 0x0441
    1a24:	8e 2f       	mov	r24, r30
    1a26:	90 e0       	ldi	r25, 0x00	; 0
    1a28:	87 30       	cpi	r24, 0x07	; 7
    1a2a:	91 05       	cpc	r25, r1
    1a2c:	28 f5       	brcc	.+74     	; 0x1a78 <main+0x94>
    1a2e:	fc 01       	movw	r30, r24
    1a30:	ec 5c       	subi	r30, 0xCC	; 204
    1a32:	ff 4f       	sbci	r31, 0xFF	; 255
    1a34:	0c 94 0f 0f 	jmp	0x1e1e	; 0x1e1e <__tablejump2__>
		{
		case M_WYBOR_FUNKCJI:
			licznik = Wybor_funkcji();
    1a38:	0e 94 ec 02 	call	0x5d8	; 0x5d8 <Wybor_funkcji>
    1a3c:	80 93 41 04 	sts	0x0441, r24
			break;
    1a40:	2c c0       	rjmp	.+88     	; 0x1a9a <main+0xb6>
			
		case M_ZMIANY_CZASOW:
			licznik = Zmiany_czasow();
    1a42:	0e 94 90 03 	call	0x720	; 0x720 <Zmiany_czasow>
    1a46:	80 93 41 04 	sts	0x0441, r24
			break;
    1a4a:	27 c0       	rjmp	.+78     	; 0x1a9a <main+0xb6>
			
		case M_WPROWADZENIE_KODOW:
			licznik = Wprowadzenie_kodow();
    1a4c:	0e 94 b1 05 	call	0xb62	; 0xb62 <Wprowadzenie_kodow>
    1a50:	80 93 41 04 	sts	0x0441, r24
			break;
    1a54:	22 c0       	rjmp	.+68     	; 0x1a9a <main+0xb6>
			
		case M_ODCZYT_KODOW:
			licznik = Odczyt_kodow();
    1a56:	0e 94 d3 06 	call	0xda6	; 0xda6 <Odczyt_kodow>
    1a5a:	80 93 41 04 	sts	0x0441, r24
			break;
    1a5e:	1d c0       	rjmp	.+58     	; 0x1a9a <main+0xb6>
			
		case M_CZY_DEKODOWAC_KODY:
			licznik =  Czy_dekodowac_kody();
    1a60:	0e 94 10 09 	call	0x1220	; 0x1220 <Czy_dekodowac_kody>
    1a64:	80 93 41 04 	sts	0x0441, r24
			break;
    1a68:	18 c0       	rjmp	.+48     	; 0x1a9a <main+0xb6>
			
		case M_DEKODOWANIE_KODOW:
			licznik = Dekodowanie_kodow();
    1a6a:	0e 94 63 09 	call	0x12c6	; 0x12c6 <Dekodowanie_kodow>
    1a6e:	80 93 41 04 	sts	0x0441, r24
			break;
    1a72:	13 c0       	rjmp	.+38     	; 0x1a9a <main+0xb6>
			
		case M_ZAKONCZ:
			licznik = Zakoncz();
    1a74:	0e 94 8d 02 	call	0x51a	; 0x51a <Zakoncz>
			break;
			
		default:
			LCD_Clear();
    1a78:	0e 94 1d 01 	call	0x23a	; 0x23a <LCD_Clear>
			LCD_Home();
    1a7c:	0e 94 27 01 	call	0x24e	; 0x24e <LCD_Home>
			LCD_WriteText("Blad wyboru instrukcji.");			
    1a80:	80 ec       	ldi	r24, 0xC0	; 192
    1a82:	91 e0       	ldi	r25, 0x01	; 1
    1a84:	0e 94 06 01 	call	0x20c	; 0x20c <LCD_WriteText>
    1a88:	2f ef       	ldi	r18, 0xFF	; 255
    1a8a:	89 e6       	ldi	r24, 0x69	; 105
    1a8c:	98 e1       	ldi	r25, 0x18	; 24
    1a8e:	21 50       	subi	r18, 0x01	; 1
    1a90:	80 40       	sbci	r24, 0x00	; 0
    1a92:	90 40       	sbci	r25, 0x00	; 0
    1a94:	e1 f7       	brne	.-8      	; 0x1a8e <main+0xaa>
    1a96:	00 c0       	rjmp	.+0      	; 0x1a98 <main+0xb4>
    1a98:	00 00       	nop
    1a9a:	2f ef       	ldi	r18, 0xFF	; 255
    1a9c:	84 e3       	ldi	r24, 0x34	; 52
    1a9e:	9c e0       	ldi	r25, 0x0C	; 12
    1aa0:	21 50       	subi	r18, 0x01	; 1
    1aa2:	80 40       	sbci	r24, 0x00	; 0
    1aa4:	90 40       	sbci	r25, 0x00	; 0
    1aa6:	e1 f7       	brne	.-8      	; 0x1aa0 <main+0xbc>
    1aa8:	00 c0       	rjmp	.+0      	; 0x1aaa <main+0xc6>
    1aaa:	00 00       	nop
    1aac:	b9 cf       	rjmp	.-142    	; 0x1a20 <main+0x3c>

00001aae <__vector_1>:
}
#endif

//przerwanie startu sygnalu
ISR(INT0_vect)
{
    1aae:	1f 92       	push	r1
    1ab0:	0f 92       	push	r0
    1ab2:	0f b6       	in	r0, 0x3f	; 63
    1ab4:	0f 92       	push	r0
    1ab6:	11 24       	eor	r1, r1
    1ab8:	8f 93       	push	r24
    1aba:	9f 93       	push	r25
    1abc:	af 93       	push	r26
    1abe:	bf 93       	push	r27
    1ac0:	ef 93       	push	r30
    1ac2:	ff 93       	push	r31
	TCCR1B = STOP_TIMER1;	//	stop timera1
    1ac4:	e1 e8       	ldi	r30, 0x81	; 129
    1ac6:	f0 e0       	ldi	r31, 0x00	; 0
    1ac8:	10 82       	st	Z, r1
	czas_zmierzony = TCNT1;	//	odczytanie licznika timera1
    1aca:	a4 e8       	ldi	r26, 0x84	; 132
    1acc:	b0 e0       	ldi	r27, 0x00	; 0
    1ace:	8d 91       	ld	r24, X+
    1ad0:	9c 91       	ld	r25, X
    1ad2:	11 97       	sbiw	r26, 0x01	; 1
    1ad4:	90 93 5c 06 	sts	0x065C, r25
    1ad8:	80 93 5b 06 	sts	0x065B, r24
	TCNT1 = 0;				//	wyzerowanie licznika timera1
    1adc:	11 96       	adiw	r26, 0x01	; 1
    1ade:	1c 92       	st	X, r1
    1ae0:	1e 92       	st	-X, r1
	TCCR1B = START_TIMER1;	//	start timera1
    1ae2:	85 e0       	ldi	r24, 0x05	; 5
    1ae4:	80 83       	st	Z, r24
	licznik = 1;			//	inforamcja o typie czasu; 0 dla czasu sprawdzonego; 1 dla przerwy; 2 dla sygnalu; 3 dla konca; 
    1ae6:	81 e0       	ldi	r24, 0x01	; 1
    1ae8:	80 93 41 04 	sts	0x0441, r24
    1aec:	87 eb       	ldi	r24, 0xB7	; 183
    1aee:	9b e0       	ldi	r25, 0x0B	; 11
    1af0:	01 97       	sbiw	r24, 0x01	; 1
    1af2:	f1 f7       	brne	.-4      	; 0x1af0 <__vector_1+0x42>
    1af4:	00 c0       	rjmp	.+0      	; 0x1af6 <__vector_1+0x48>
    1af6:	00 00       	nop
	_delay_ms(3);
}
    1af8:	ff 91       	pop	r31
    1afa:	ef 91       	pop	r30
    1afc:	bf 91       	pop	r27
    1afe:	af 91       	pop	r26
    1b00:	9f 91       	pop	r25
    1b02:	8f 91       	pop	r24
    1b04:	0f 90       	pop	r0
    1b06:	0f be       	out	0x3f, r0	; 63
    1b08:	0f 90       	pop	r0
    1b0a:	1f 90       	pop	r1
    1b0c:	18 95       	reti

00001b0e <__vector_2>:


//	przerwanie koñca sygnalu
ISR(INT1_vect)
{
    1b0e:	1f 92       	push	r1
    1b10:	0f 92       	push	r0
    1b12:	0f b6       	in	r0, 0x3f	; 63
    1b14:	0f 92       	push	r0
    1b16:	11 24       	eor	r1, r1
    1b18:	8f 93       	push	r24
    1b1a:	9f 93       	push	r25
    1b1c:	af 93       	push	r26
    1b1e:	bf 93       	push	r27
    1b20:	ef 93       	push	r30
    1b22:	ff 93       	push	r31
	TCCR1B = STOP_TIMER1;	//	stop timera1
    1b24:	e1 e8       	ldi	r30, 0x81	; 129
    1b26:	f0 e0       	ldi	r31, 0x00	; 0
    1b28:	10 82       	st	Z, r1
	czas_zmierzony = TCNT1;	//	odczytanie licznika timera1
    1b2a:	a4 e8       	ldi	r26, 0x84	; 132
    1b2c:	b0 e0       	ldi	r27, 0x00	; 0
    1b2e:	8d 91       	ld	r24, X+
    1b30:	9c 91       	ld	r25, X
    1b32:	11 97       	sbiw	r26, 0x01	; 1
    1b34:	90 93 5c 06 	sts	0x065C, r25
    1b38:	80 93 5b 06 	sts	0x065B, r24
	TCNT1 = 0;				//	wyzerowanie licznika timera1
    1b3c:	11 96       	adiw	r26, 0x01	; 1
    1b3e:	1c 92       	st	X, r1
    1b40:	1e 92       	st	-X, r1
	TCCR1B = START_TIMER1;	//	start timera1
    1b42:	85 e0       	ldi	r24, 0x05	; 5
    1b44:	80 83       	st	Z, r24
	licznik = 2;			//	inforamcja o typie czasu; 0 dla czasu sprawdzonego; 1 dla przerwy; 2 dla sygnalu; 3 dla konca;
    1b46:	82 e0       	ldi	r24, 0x02	; 2
    1b48:	80 93 41 04 	sts	0x0441, r24
    1b4c:	87 eb       	ldi	r24, 0xB7	; 183
    1b4e:	9b e0       	ldi	r25, 0x0B	; 11
    1b50:	01 97       	sbiw	r24, 0x01	; 1
    1b52:	f1 f7       	brne	.-4      	; 0x1b50 <__vector_2+0x42>
    1b54:	00 c0       	rjmp	.+0      	; 0x1b56 <__vector_2+0x48>
    1b56:	00 00       	nop
	_delay_ms(3);
}
    1b58:	ff 91       	pop	r31
    1b5a:	ef 91       	pop	r30
    1b5c:	bf 91       	pop	r27
    1b5e:	af 91       	pop	r26
    1b60:	9f 91       	pop	r25
    1b62:	8f 91       	pop	r24
    1b64:	0f 90       	pop	r0
    1b66:	0f be       	out	0x3f, r0	; 63
    1b68:	0f 90       	pop	r0
    1b6a:	1f 90       	pop	r1
    1b6c:	18 95       	reti

00001b6e <__vector_11>:


//	przerwanie koñca czasu sprawdzania
ISR(TIMER1_COMPA_vect)
{
    1b6e:	1f 92       	push	r1
    1b70:	0f 92       	push	r0
    1b72:	0f b6       	in	r0, 0x3f	; 63
    1b74:	0f 92       	push	r0
    1b76:	11 24       	eor	r1, r1
    1b78:	8f 93       	push	r24
	TCCR1B = STOP_TIMER1;	//	stop timera1
    1b7a:	10 92 81 00 	sts	0x0081, r1
	licznik = 3;			//	inforamcja o typie czasu; 0 dla czasu sprawdzonego; 1 dla przerwy; 2 dla sygnalu; 3 dla konca; 
    1b7e:	83 e0       	ldi	r24, 0x03	; 3
    1b80:	80 93 41 04 	sts	0x0441, r24
}
    1b84:	8f 91       	pop	r24
    1b86:	0f 90       	pop	r0
    1b88:	0f be       	out	0x3f, r0	; 63
    1b8a:	0f 90       	pop	r0
    1b8c:	1f 90       	pop	r1
    1b8e:	18 95       	reti

00001b90 <Ustaw_porty>:
#include "Porty.h"

void Ustaw_porty(void)
{
	
	IF_CARD_DIR	&=~	(1<<IF_CARD);	//	jako wejscie
    1b90:	21 98       	cbi	0x04, 1	; 4
	IF_CARD_PORT |= (1<<IF_CARD);	//	pullup
    1b92:	29 9a       	sbi	0x05, 1	; 5
	
	BUTTON_DIR &=~	(1<<BUTTON_RED) | (1<<BUTTON_GREEN) | (1<<BUTTON_BLUE);		//	jako wejscie
    1b94:	57 98       	cbi	0x0a, 7	; 10
	BUTTON_PORT |=	(1<<BUTTON_RED) | (1<<BUTTON_GREEN) | (1<<BUTTON_BLUE);		//	pullup
    1b96:	8b b1       	in	r24, 0x0b	; 11
    1b98:	80 6e       	ori	r24, 0xE0	; 224
    1b9a:	8b b9       	out	0x0b, r24	; 11
	  		
	
	COMPERE_DIR	 &=~ (1<<COMPERE_1) | (1<<COMPERE_2);	//	jako wejscie
    1b9c:	53 98       	cbi	0x0a, 3	; 10
	
	SIGNAL_ENABLE_DIR	|= (1<<SIGNAL_ENABLE);	//	jako wyjscie
    1b9e:	20 9a       	sbi	0x04, 0	; 4
    1ba0:	08 95       	ret

00001ba2 <Ustaw_ADC>:


void Ustaw_ADC(void)
{
	//ADMUX = (uint8_t)0;				//	napiecie odniesienia zewnetrzne AREF, prawe wyjustowanie wyniku,odczyt z kanalu ADC0 
	ADCSRA |= (1<<ADEN);			//	&B10000000 = w³¹czenie ADC, pojedyncze przetwarzanie,wy³¹czone przerwanie prescaler 2
    1ba2:	ea e7       	ldi	r30, 0x7A	; 122
    1ba4:	f0 e0       	ldi	r31, 0x00	; 0
    1ba6:	80 81       	ld	r24, Z
    1ba8:	80 68       	ori	r24, 0x80	; 128
    1baa:	80 83       	st	Z, r24
	if (POT<=5) DIDR0 |= (1<<POT);	//	wy³¹czenie bufora cyfrowego na wejœciu analogowym
    1bac:	ee e7       	ldi	r30, 0x7E	; 126
    1bae:	f0 e0       	ldi	r31, 0x00	; 0
    1bb0:	80 81       	ld	r24, Z
    1bb2:	81 60       	ori	r24, 0x01	; 1
    1bb4:	80 83       	st	Z, r24
    1bb6:	08 95       	ret

00001bb8 <Ustaw_TIMER1>:



void Ustaw_TIMER1(uint16_t czas_sprawdzania)
{
	OCR1A = czas_sprawdzania;			//	ustawienie czasu koñca sprawdzania od ostatniego zbocza narastaj¹cego
    1bb8:	90 93 89 00 	sts	0x0089, r25
    1bbc:	80 93 88 00 	sts	0x0088, r24
	TIMSK1 |= (1<<OCIE1A);				//	w³aczenie przerwania dla porownania
    1bc0:	ef e6       	ldi	r30, 0x6F	; 111
    1bc2:	f0 e0       	ldi	r31, 0x00	; 0
    1bc4:	80 81       	ld	r24, Z
    1bc6:	82 60       	ori	r24, 0x02	; 2
    1bc8:	80 83       	st	Z, r24
    1bca:	08 95       	ret

00001bcc <Ustaw_przerwania_zew_INT>:



void Ustaw_przerwania_zew_INT(void)
{
	EICRA |= (1<<ISC11) | (0<<ISC10) | (1<<ISC01) | (1<<ISC00); // wywo³anie przerwañ: INT0 narastaj¹ce zbocze; INT1 zbocze opadajace
    1bcc:	e9 e6       	ldi	r30, 0x69	; 105
    1bce:	f0 e0       	ldi	r31, 0x00	; 0
    1bd0:	80 81       	ld	r24, Z
    1bd2:	8b 60       	ori	r24, 0x0B	; 11
    1bd4:	80 83       	st	Z, r24
	EIMSK |= (1<<INT1) | (1<<INT0);				//	w³¹czenie przerwañ
    1bd6:	8d b3       	in	r24, 0x1d	; 29
    1bd8:	83 60       	ori	r24, 0x03	; 3
    1bda:	8d bb       	out	0x1d, r24	; 29
    1bdc:	08 95       	ret

00001bde <__divsf3>:
    1bde:	0e 94 03 0e 	call	0x1c06	; 0x1c06 <__divsf3x>
    1be2:	0c 94 b5 0e 	jmp	0x1d6a	; 0x1d6a <__fp_round>
    1be6:	0e 94 ae 0e 	call	0x1d5c	; 0x1d5c <__fp_pscB>
    1bea:	58 f0       	brcs	.+22     	; 0x1c02 <__divsf3+0x24>
    1bec:	0e 94 a7 0e 	call	0x1d4e	; 0x1d4e <__fp_pscA>
    1bf0:	40 f0       	brcs	.+16     	; 0x1c02 <__divsf3+0x24>
    1bf2:	29 f4       	brne	.+10     	; 0x1bfe <__divsf3+0x20>
    1bf4:	5f 3f       	cpi	r21, 0xFF	; 255
    1bf6:	29 f0       	breq	.+10     	; 0x1c02 <__divsf3+0x24>
    1bf8:	0c 94 9e 0e 	jmp	0x1d3c	; 0x1d3c <__fp_inf>
    1bfc:	51 11       	cpse	r21, r1
    1bfe:	0c 94 e9 0e 	jmp	0x1dd2	; 0x1dd2 <__fp_szero>
    1c02:	0c 94 a4 0e 	jmp	0x1d48	; 0x1d48 <__fp_nan>

00001c06 <__divsf3x>:
    1c06:	0e 94 c6 0e 	call	0x1d8c	; 0x1d8c <__fp_split3>
    1c0a:	68 f3       	brcs	.-38     	; 0x1be6 <__divsf3+0x8>

00001c0c <__divsf3_pse>:
    1c0c:	99 23       	and	r25, r25
    1c0e:	b1 f3       	breq	.-20     	; 0x1bfc <__divsf3+0x1e>
    1c10:	55 23       	and	r21, r21
    1c12:	91 f3       	breq	.-28     	; 0x1bf8 <__divsf3+0x1a>
    1c14:	95 1b       	sub	r25, r21
    1c16:	55 0b       	sbc	r21, r21
    1c18:	bb 27       	eor	r27, r27
    1c1a:	aa 27       	eor	r26, r26
    1c1c:	62 17       	cp	r22, r18
    1c1e:	73 07       	cpc	r23, r19
    1c20:	84 07       	cpc	r24, r20
    1c22:	38 f0       	brcs	.+14     	; 0x1c32 <__divsf3_pse+0x26>
    1c24:	9f 5f       	subi	r25, 0xFF	; 255
    1c26:	5f 4f       	sbci	r21, 0xFF	; 255
    1c28:	22 0f       	add	r18, r18
    1c2a:	33 1f       	adc	r19, r19
    1c2c:	44 1f       	adc	r20, r20
    1c2e:	aa 1f       	adc	r26, r26
    1c30:	a9 f3       	breq	.-22     	; 0x1c1c <__divsf3_pse+0x10>
    1c32:	35 d0       	rcall	.+106    	; 0x1c9e <__divsf3_pse+0x92>
    1c34:	0e 2e       	mov	r0, r30
    1c36:	3a f0       	brmi	.+14     	; 0x1c46 <__divsf3_pse+0x3a>
    1c38:	e0 e8       	ldi	r30, 0x80	; 128
    1c3a:	32 d0       	rcall	.+100    	; 0x1ca0 <__divsf3_pse+0x94>
    1c3c:	91 50       	subi	r25, 0x01	; 1
    1c3e:	50 40       	sbci	r21, 0x00	; 0
    1c40:	e6 95       	lsr	r30
    1c42:	00 1c       	adc	r0, r0
    1c44:	ca f7       	brpl	.-14     	; 0x1c38 <__divsf3_pse+0x2c>
    1c46:	2b d0       	rcall	.+86     	; 0x1c9e <__divsf3_pse+0x92>
    1c48:	fe 2f       	mov	r31, r30
    1c4a:	29 d0       	rcall	.+82     	; 0x1c9e <__divsf3_pse+0x92>
    1c4c:	66 0f       	add	r22, r22
    1c4e:	77 1f       	adc	r23, r23
    1c50:	88 1f       	adc	r24, r24
    1c52:	bb 1f       	adc	r27, r27
    1c54:	26 17       	cp	r18, r22
    1c56:	37 07       	cpc	r19, r23
    1c58:	48 07       	cpc	r20, r24
    1c5a:	ab 07       	cpc	r26, r27
    1c5c:	b0 e8       	ldi	r27, 0x80	; 128
    1c5e:	09 f0       	breq	.+2      	; 0x1c62 <__divsf3_pse+0x56>
    1c60:	bb 0b       	sbc	r27, r27
    1c62:	80 2d       	mov	r24, r0
    1c64:	bf 01       	movw	r22, r30
    1c66:	ff 27       	eor	r31, r31
    1c68:	93 58       	subi	r25, 0x83	; 131
    1c6a:	5f 4f       	sbci	r21, 0xFF	; 255
    1c6c:	3a f0       	brmi	.+14     	; 0x1c7c <__divsf3_pse+0x70>
    1c6e:	9e 3f       	cpi	r25, 0xFE	; 254
    1c70:	51 05       	cpc	r21, r1
    1c72:	78 f0       	brcs	.+30     	; 0x1c92 <__divsf3_pse+0x86>
    1c74:	0c 94 9e 0e 	jmp	0x1d3c	; 0x1d3c <__fp_inf>
    1c78:	0c 94 e9 0e 	jmp	0x1dd2	; 0x1dd2 <__fp_szero>
    1c7c:	5f 3f       	cpi	r21, 0xFF	; 255
    1c7e:	e4 f3       	brlt	.-8      	; 0x1c78 <__divsf3_pse+0x6c>
    1c80:	98 3e       	cpi	r25, 0xE8	; 232
    1c82:	d4 f3       	brlt	.-12     	; 0x1c78 <__divsf3_pse+0x6c>
    1c84:	86 95       	lsr	r24
    1c86:	77 95       	ror	r23
    1c88:	67 95       	ror	r22
    1c8a:	b7 95       	ror	r27
    1c8c:	f7 95       	ror	r31
    1c8e:	9f 5f       	subi	r25, 0xFF	; 255
    1c90:	c9 f7       	brne	.-14     	; 0x1c84 <__divsf3_pse+0x78>
    1c92:	88 0f       	add	r24, r24
    1c94:	91 1d       	adc	r25, r1
    1c96:	96 95       	lsr	r25
    1c98:	87 95       	ror	r24
    1c9a:	97 f9       	bld	r25, 7
    1c9c:	08 95       	ret
    1c9e:	e1 e0       	ldi	r30, 0x01	; 1
    1ca0:	66 0f       	add	r22, r22
    1ca2:	77 1f       	adc	r23, r23
    1ca4:	88 1f       	adc	r24, r24
    1ca6:	bb 1f       	adc	r27, r27
    1ca8:	62 17       	cp	r22, r18
    1caa:	73 07       	cpc	r23, r19
    1cac:	84 07       	cpc	r24, r20
    1cae:	ba 07       	cpc	r27, r26
    1cb0:	20 f0       	brcs	.+8      	; 0x1cba <__divsf3_pse+0xae>
    1cb2:	62 1b       	sub	r22, r18
    1cb4:	73 0b       	sbc	r23, r19
    1cb6:	84 0b       	sbc	r24, r20
    1cb8:	ba 0b       	sbc	r27, r26
    1cba:	ee 1f       	adc	r30, r30
    1cbc:	88 f7       	brcc	.-30     	; 0x1ca0 <__divsf3_pse+0x94>
    1cbe:	e0 95       	com	r30
    1cc0:	08 95       	ret

00001cc2 <__floatunsisf>:
    1cc2:	e8 94       	clt
    1cc4:	09 c0       	rjmp	.+18     	; 0x1cd8 <__floatsisf+0x12>

00001cc6 <__floatsisf>:
    1cc6:	97 fb       	bst	r25, 7
    1cc8:	3e f4       	brtc	.+14     	; 0x1cd8 <__floatsisf+0x12>
    1cca:	90 95       	com	r25
    1ccc:	80 95       	com	r24
    1cce:	70 95       	com	r23
    1cd0:	61 95       	neg	r22
    1cd2:	7f 4f       	sbci	r23, 0xFF	; 255
    1cd4:	8f 4f       	sbci	r24, 0xFF	; 255
    1cd6:	9f 4f       	sbci	r25, 0xFF	; 255
    1cd8:	99 23       	and	r25, r25
    1cda:	a9 f0       	breq	.+42     	; 0x1d06 <__floatsisf+0x40>
    1cdc:	f9 2f       	mov	r31, r25
    1cde:	96 e9       	ldi	r25, 0x96	; 150
    1ce0:	bb 27       	eor	r27, r27
    1ce2:	93 95       	inc	r25
    1ce4:	f6 95       	lsr	r31
    1ce6:	87 95       	ror	r24
    1ce8:	77 95       	ror	r23
    1cea:	67 95       	ror	r22
    1cec:	b7 95       	ror	r27
    1cee:	f1 11       	cpse	r31, r1
    1cf0:	f8 cf       	rjmp	.-16     	; 0x1ce2 <__floatsisf+0x1c>
    1cf2:	fa f4       	brpl	.+62     	; 0x1d32 <__floatsisf+0x6c>
    1cf4:	bb 0f       	add	r27, r27
    1cf6:	11 f4       	brne	.+4      	; 0x1cfc <__floatsisf+0x36>
    1cf8:	60 ff       	sbrs	r22, 0
    1cfa:	1b c0       	rjmp	.+54     	; 0x1d32 <__floatsisf+0x6c>
    1cfc:	6f 5f       	subi	r22, 0xFF	; 255
    1cfe:	7f 4f       	sbci	r23, 0xFF	; 255
    1d00:	8f 4f       	sbci	r24, 0xFF	; 255
    1d02:	9f 4f       	sbci	r25, 0xFF	; 255
    1d04:	16 c0       	rjmp	.+44     	; 0x1d32 <__floatsisf+0x6c>
    1d06:	88 23       	and	r24, r24
    1d08:	11 f0       	breq	.+4      	; 0x1d0e <__floatsisf+0x48>
    1d0a:	96 e9       	ldi	r25, 0x96	; 150
    1d0c:	11 c0       	rjmp	.+34     	; 0x1d30 <__floatsisf+0x6a>
    1d0e:	77 23       	and	r23, r23
    1d10:	21 f0       	breq	.+8      	; 0x1d1a <__floatsisf+0x54>
    1d12:	9e e8       	ldi	r25, 0x8E	; 142
    1d14:	87 2f       	mov	r24, r23
    1d16:	76 2f       	mov	r23, r22
    1d18:	05 c0       	rjmp	.+10     	; 0x1d24 <__floatsisf+0x5e>
    1d1a:	66 23       	and	r22, r22
    1d1c:	71 f0       	breq	.+28     	; 0x1d3a <__floatsisf+0x74>
    1d1e:	96 e8       	ldi	r25, 0x86	; 134
    1d20:	86 2f       	mov	r24, r22
    1d22:	70 e0       	ldi	r23, 0x00	; 0
    1d24:	60 e0       	ldi	r22, 0x00	; 0
    1d26:	2a f0       	brmi	.+10     	; 0x1d32 <__floatsisf+0x6c>
    1d28:	9a 95       	dec	r25
    1d2a:	66 0f       	add	r22, r22
    1d2c:	77 1f       	adc	r23, r23
    1d2e:	88 1f       	adc	r24, r24
    1d30:	da f7       	brpl	.-10     	; 0x1d28 <__floatsisf+0x62>
    1d32:	88 0f       	add	r24, r24
    1d34:	96 95       	lsr	r25
    1d36:	87 95       	ror	r24
    1d38:	97 f9       	bld	r25, 7
    1d3a:	08 95       	ret

00001d3c <__fp_inf>:
    1d3c:	97 f9       	bld	r25, 7
    1d3e:	9f 67       	ori	r25, 0x7F	; 127
    1d40:	80 e8       	ldi	r24, 0x80	; 128
    1d42:	70 e0       	ldi	r23, 0x00	; 0
    1d44:	60 e0       	ldi	r22, 0x00	; 0
    1d46:	08 95       	ret

00001d48 <__fp_nan>:
    1d48:	9f ef       	ldi	r25, 0xFF	; 255
    1d4a:	80 ec       	ldi	r24, 0xC0	; 192
    1d4c:	08 95       	ret

00001d4e <__fp_pscA>:
    1d4e:	00 24       	eor	r0, r0
    1d50:	0a 94       	dec	r0
    1d52:	16 16       	cp	r1, r22
    1d54:	17 06       	cpc	r1, r23
    1d56:	18 06       	cpc	r1, r24
    1d58:	09 06       	cpc	r0, r25
    1d5a:	08 95       	ret

00001d5c <__fp_pscB>:
    1d5c:	00 24       	eor	r0, r0
    1d5e:	0a 94       	dec	r0
    1d60:	12 16       	cp	r1, r18
    1d62:	13 06       	cpc	r1, r19
    1d64:	14 06       	cpc	r1, r20
    1d66:	05 06       	cpc	r0, r21
    1d68:	08 95       	ret

00001d6a <__fp_round>:
    1d6a:	09 2e       	mov	r0, r25
    1d6c:	03 94       	inc	r0
    1d6e:	00 0c       	add	r0, r0
    1d70:	11 f4       	brne	.+4      	; 0x1d76 <__fp_round+0xc>
    1d72:	88 23       	and	r24, r24
    1d74:	52 f0       	brmi	.+20     	; 0x1d8a <__fp_round+0x20>
    1d76:	bb 0f       	add	r27, r27
    1d78:	40 f4       	brcc	.+16     	; 0x1d8a <__fp_round+0x20>
    1d7a:	bf 2b       	or	r27, r31
    1d7c:	11 f4       	brne	.+4      	; 0x1d82 <__fp_round+0x18>
    1d7e:	60 ff       	sbrs	r22, 0
    1d80:	04 c0       	rjmp	.+8      	; 0x1d8a <__fp_round+0x20>
    1d82:	6f 5f       	subi	r22, 0xFF	; 255
    1d84:	7f 4f       	sbci	r23, 0xFF	; 255
    1d86:	8f 4f       	sbci	r24, 0xFF	; 255
    1d88:	9f 4f       	sbci	r25, 0xFF	; 255
    1d8a:	08 95       	ret

00001d8c <__fp_split3>:
    1d8c:	57 fd       	sbrc	r21, 7
    1d8e:	90 58       	subi	r25, 0x80	; 128
    1d90:	44 0f       	add	r20, r20
    1d92:	55 1f       	adc	r21, r21
    1d94:	59 f0       	breq	.+22     	; 0x1dac <__fp_splitA+0x10>
    1d96:	5f 3f       	cpi	r21, 0xFF	; 255
    1d98:	71 f0       	breq	.+28     	; 0x1db6 <__fp_splitA+0x1a>
    1d9a:	47 95       	ror	r20

00001d9c <__fp_splitA>:
    1d9c:	88 0f       	add	r24, r24
    1d9e:	97 fb       	bst	r25, 7
    1da0:	99 1f       	adc	r25, r25
    1da2:	61 f0       	breq	.+24     	; 0x1dbc <__fp_splitA+0x20>
    1da4:	9f 3f       	cpi	r25, 0xFF	; 255
    1da6:	79 f0       	breq	.+30     	; 0x1dc6 <__fp_splitA+0x2a>
    1da8:	87 95       	ror	r24
    1daa:	08 95       	ret
    1dac:	12 16       	cp	r1, r18
    1dae:	13 06       	cpc	r1, r19
    1db0:	14 06       	cpc	r1, r20
    1db2:	55 1f       	adc	r21, r21
    1db4:	f2 cf       	rjmp	.-28     	; 0x1d9a <__fp_split3+0xe>
    1db6:	46 95       	lsr	r20
    1db8:	f1 df       	rcall	.-30     	; 0x1d9c <__fp_splitA>
    1dba:	08 c0       	rjmp	.+16     	; 0x1dcc <__fp_splitA+0x30>
    1dbc:	16 16       	cp	r1, r22
    1dbe:	17 06       	cpc	r1, r23
    1dc0:	18 06       	cpc	r1, r24
    1dc2:	99 1f       	adc	r25, r25
    1dc4:	f1 cf       	rjmp	.-30     	; 0x1da8 <__fp_splitA+0xc>
    1dc6:	86 95       	lsr	r24
    1dc8:	71 05       	cpc	r23, r1
    1dca:	61 05       	cpc	r22, r1
    1dcc:	08 94       	sec
    1dce:	08 95       	ret

00001dd0 <__fp_zero>:
    1dd0:	e8 94       	clt

00001dd2 <__fp_szero>:
    1dd2:	bb 27       	eor	r27, r27
    1dd4:	66 27       	eor	r22, r22
    1dd6:	77 27       	eor	r23, r23
    1dd8:	cb 01       	movw	r24, r22
    1dda:	97 f9       	bld	r25, 7
    1ddc:	08 95       	ret

00001dde <__udivmodqi4>:
    1dde:	99 1b       	sub	r25, r25
    1de0:	79 e0       	ldi	r23, 0x09	; 9
    1de2:	04 c0       	rjmp	.+8      	; 0x1dec <__udivmodqi4_ep>

00001de4 <__udivmodqi4_loop>:
    1de4:	99 1f       	adc	r25, r25
    1de6:	96 17       	cp	r25, r22
    1de8:	08 f0       	brcs	.+2      	; 0x1dec <__udivmodqi4_ep>
    1dea:	96 1b       	sub	r25, r22

00001dec <__udivmodqi4_ep>:
    1dec:	88 1f       	adc	r24, r24
    1dee:	7a 95       	dec	r23
    1df0:	c9 f7       	brne	.-14     	; 0x1de4 <__udivmodqi4_loop>
    1df2:	80 95       	com	r24
    1df4:	08 95       	ret

00001df6 <__divmodhi4>:
    1df6:	97 fb       	bst	r25, 7
    1df8:	07 2e       	mov	r0, r23
    1dfa:	16 f4       	brtc	.+4      	; 0x1e00 <__divmodhi4+0xa>
    1dfc:	00 94       	com	r0
    1dfe:	07 d0       	rcall	.+14     	; 0x1e0e <__divmodhi4_neg1>
    1e00:	77 fd       	sbrc	r23, 7
    1e02:	09 d0       	rcall	.+18     	; 0x1e16 <__divmodhi4_neg2>
    1e04:	0e 94 15 0f 	call	0x1e2a	; 0x1e2a <__udivmodhi4>
    1e08:	07 fc       	sbrc	r0, 7
    1e0a:	05 d0       	rcall	.+10     	; 0x1e16 <__divmodhi4_neg2>
    1e0c:	3e f4       	brtc	.+14     	; 0x1e1c <__divmodhi4_exit>

00001e0e <__divmodhi4_neg1>:
    1e0e:	90 95       	com	r25
    1e10:	81 95       	neg	r24
    1e12:	9f 4f       	sbci	r25, 0xFF	; 255
    1e14:	08 95       	ret

00001e16 <__divmodhi4_neg2>:
    1e16:	70 95       	com	r23
    1e18:	61 95       	neg	r22
    1e1a:	7f 4f       	sbci	r23, 0xFF	; 255

00001e1c <__divmodhi4_exit>:
    1e1c:	08 95       	ret

00001e1e <__tablejump2__>:
    1e1e:	ee 0f       	add	r30, r30
    1e20:	ff 1f       	adc	r31, r31
    1e22:	05 90       	lpm	r0, Z+
    1e24:	f4 91       	lpm	r31, Z
    1e26:	e0 2d       	mov	r30, r0
    1e28:	09 94       	ijmp

00001e2a <__udivmodhi4>:
    1e2a:	aa 1b       	sub	r26, r26
    1e2c:	bb 1b       	sub	r27, r27
    1e2e:	51 e1       	ldi	r21, 0x11	; 17
    1e30:	07 c0       	rjmp	.+14     	; 0x1e40 <__udivmodhi4_ep>

00001e32 <__udivmodhi4_loop>:
    1e32:	aa 1f       	adc	r26, r26
    1e34:	bb 1f       	adc	r27, r27
    1e36:	a6 17       	cp	r26, r22
    1e38:	b7 07       	cpc	r27, r23
    1e3a:	10 f0       	brcs	.+4      	; 0x1e40 <__udivmodhi4_ep>
    1e3c:	a6 1b       	sub	r26, r22
    1e3e:	b7 0b       	sbc	r27, r23

00001e40 <__udivmodhi4_ep>:
    1e40:	88 1f       	adc	r24, r24
    1e42:	99 1f       	adc	r25, r25
    1e44:	5a 95       	dec	r21
    1e46:	a9 f7       	brne	.-22     	; 0x1e32 <__udivmodhi4_loop>
    1e48:	80 95       	com	r24
    1e4a:	90 95       	com	r25
    1e4c:	bc 01       	movw	r22, r24
    1e4e:	cd 01       	movw	r24, r26
    1e50:	08 95       	ret

00001e52 <dtostrf>:
    1e52:	ef 92       	push	r14
    1e54:	0f 93       	push	r16
    1e56:	1f 93       	push	r17
    1e58:	cf 93       	push	r28
    1e5a:	df 93       	push	r29
    1e5c:	e8 01       	movw	r28, r16
    1e5e:	47 fd       	sbrc	r20, 7
    1e60:	02 c0       	rjmp	.+4      	; 0x1e66 <dtostrf+0x14>
    1e62:	34 e0       	ldi	r19, 0x04	; 4
    1e64:	01 c0       	rjmp	.+2      	; 0x1e68 <dtostrf+0x16>
    1e66:	34 e1       	ldi	r19, 0x14	; 20
    1e68:	e4 2f       	mov	r30, r20
    1e6a:	44 0f       	add	r20, r20
    1e6c:	ff 0b       	sbc	r31, r31
    1e6e:	f7 ff       	sbrs	r31, 7
    1e70:	03 c0       	rjmp	.+6      	; 0x1e78 <dtostrf+0x26>
    1e72:	f1 95       	neg	r31
    1e74:	e1 95       	neg	r30
    1e76:	f1 09       	sbc	r31, r1
    1e78:	e3 2e       	mov	r14, r19
    1e7a:	02 2f       	mov	r16, r18
    1e7c:	2e 2f       	mov	r18, r30
    1e7e:	ae 01       	movw	r20, r28
    1e80:	0e 94 63 0f 	call	0x1ec6	; 0x1ec6 <dtoa_prf>
    1e84:	ce 01       	movw	r24, r28
    1e86:	df 91       	pop	r29
    1e88:	cf 91       	pop	r28
    1e8a:	1f 91       	pop	r17
    1e8c:	0f 91       	pop	r16
    1e8e:	ef 90       	pop	r14
    1e90:	08 95       	ret

00001e92 <__utoa_ncheck>:
    1e92:	bb 27       	eor	r27, r27

00001e94 <__utoa_common>:
    1e94:	fb 01       	movw	r30, r22
    1e96:	55 27       	eor	r21, r21
    1e98:	aa 27       	eor	r26, r26
    1e9a:	88 0f       	add	r24, r24
    1e9c:	99 1f       	adc	r25, r25
    1e9e:	aa 1f       	adc	r26, r26
    1ea0:	a4 17       	cp	r26, r20
    1ea2:	10 f0       	brcs	.+4      	; 0x1ea8 <__utoa_common+0x14>
    1ea4:	a4 1b       	sub	r26, r20
    1ea6:	83 95       	inc	r24
    1ea8:	50 51       	subi	r21, 0x10	; 16
    1eaa:	b9 f7       	brne	.-18     	; 0x1e9a <__utoa_common+0x6>
    1eac:	a0 5d       	subi	r26, 0xD0	; 208
    1eae:	aa 33       	cpi	r26, 0x3A	; 58
    1eb0:	08 f0       	brcs	.+2      	; 0x1eb4 <__utoa_common+0x20>
    1eb2:	a9 5d       	subi	r26, 0xD9	; 217
    1eb4:	a1 93       	st	Z+, r26
    1eb6:	00 97       	sbiw	r24, 0x00	; 0
    1eb8:	79 f7       	brne	.-34     	; 0x1e98 <__utoa_common+0x4>
    1eba:	b1 11       	cpse	r27, r1
    1ebc:	b1 93       	st	Z+, r27
    1ebe:	11 92       	st	Z+, r1
    1ec0:	cb 01       	movw	r24, r22
    1ec2:	0c 94 c9 11 	jmp	0x2392	; 0x2392 <strrev>

00001ec6 <dtoa_prf>:
    1ec6:	4f 92       	push	r4
    1ec8:	5f 92       	push	r5
    1eca:	6f 92       	push	r6
    1ecc:	7f 92       	push	r7
    1ece:	9f 92       	push	r9
    1ed0:	af 92       	push	r10
    1ed2:	bf 92       	push	r11
    1ed4:	cf 92       	push	r12
    1ed6:	df 92       	push	r13
    1ed8:	ef 92       	push	r14
    1eda:	ff 92       	push	r15
    1edc:	0f 93       	push	r16
    1ede:	1f 93       	push	r17
    1ee0:	cf 93       	push	r28
    1ee2:	df 93       	push	r29
    1ee4:	cd b7       	in	r28, 0x3d	; 61
    1ee6:	de b7       	in	r29, 0x3e	; 62
    1ee8:	29 97       	sbiw	r28, 0x09	; 9
    1eea:	0f b6       	in	r0, 0x3f	; 63
    1eec:	f8 94       	cli
    1eee:	de bf       	out	0x3e, r29	; 62
    1ef0:	0f be       	out	0x3f, r0	; 63
    1ef2:	cd bf       	out	0x3d, r28	; 61
    1ef4:	6a 01       	movw	r12, r20
    1ef6:	12 2f       	mov	r17, r18
    1ef8:	b0 2e       	mov	r11, r16
    1efa:	2b e3       	ldi	r18, 0x3B	; 59
    1efc:	20 17       	cp	r18, r16
    1efe:	20 f0       	brcs	.+8      	; 0x1f08 <dtoa_prf+0x42>
    1f00:	ff 24       	eor	r15, r15
    1f02:	f3 94       	inc	r15
    1f04:	f0 0e       	add	r15, r16
    1f06:	02 c0       	rjmp	.+4      	; 0x1f0c <dtoa_prf+0x46>
    1f08:	bc e3       	ldi	r27, 0x3C	; 60
    1f0a:	fb 2e       	mov	r15, r27
    1f0c:	0f 2d       	mov	r16, r15
    1f0e:	27 e0       	ldi	r18, 0x07	; 7
    1f10:	ae 01       	movw	r20, r28
    1f12:	4f 5f       	subi	r20, 0xFF	; 255
    1f14:	5f 4f       	sbci	r21, 0xFF	; 255
    1f16:	0e 94 f1 10 	call	0x21e2	; 0x21e2 <__ftoa_engine>
    1f1a:	ac 01       	movw	r20, r24
    1f1c:	89 81       	ldd	r24, Y+1	; 0x01
    1f1e:	98 2f       	mov	r25, r24
    1f20:	99 70       	andi	r25, 0x09	; 9
    1f22:	91 30       	cpi	r25, 0x01	; 1
    1f24:	31 f0       	breq	.+12     	; 0x1f32 <dtoa_prf+0x6c>
    1f26:	e1 fc       	sbrc	r14, 1
    1f28:	06 c0       	rjmp	.+12     	; 0x1f36 <dtoa_prf+0x70>
    1f2a:	e0 fe       	sbrs	r14, 0
    1f2c:	06 c0       	rjmp	.+12     	; 0x1f3a <dtoa_prf+0x74>
    1f2e:	90 e2       	ldi	r25, 0x20	; 32
    1f30:	05 c0       	rjmp	.+10     	; 0x1f3c <dtoa_prf+0x76>
    1f32:	9d e2       	ldi	r25, 0x2D	; 45
    1f34:	03 c0       	rjmp	.+6      	; 0x1f3c <dtoa_prf+0x76>
    1f36:	9b e2       	ldi	r25, 0x2B	; 43
    1f38:	01 c0       	rjmp	.+2      	; 0x1f3c <dtoa_prf+0x76>
    1f3a:	90 e0       	ldi	r25, 0x00	; 0
    1f3c:	ee 2d       	mov	r30, r14
    1f3e:	e0 71       	andi	r30, 0x10	; 16
    1f40:	83 ff       	sbrs	r24, 3
    1f42:	3c c0       	rjmp	.+120    	; 0x1fbc <dtoa_prf+0xf6>
    1f44:	91 11       	cpse	r25, r1
    1f46:	02 c0       	rjmp	.+4      	; 0x1f4c <dtoa_prf+0x86>
    1f48:	83 e0       	ldi	r24, 0x03	; 3
    1f4a:	01 c0       	rjmp	.+2      	; 0x1f4e <dtoa_prf+0x88>
    1f4c:	84 e0       	ldi	r24, 0x04	; 4
    1f4e:	81 17       	cp	r24, r17
    1f50:	18 f4       	brcc	.+6      	; 0x1f58 <dtoa_prf+0x92>
    1f52:	21 2f       	mov	r18, r17
    1f54:	28 1b       	sub	r18, r24
    1f56:	01 c0       	rjmp	.+2      	; 0x1f5a <dtoa_prf+0x94>
    1f58:	20 e0       	ldi	r18, 0x00	; 0
    1f5a:	e1 11       	cpse	r30, r1
    1f5c:	0b c0       	rjmp	.+22     	; 0x1f74 <dtoa_prf+0xae>
    1f5e:	f6 01       	movw	r30, r12
    1f60:	82 2f       	mov	r24, r18
    1f62:	30 e2       	ldi	r19, 0x20	; 32
    1f64:	88 23       	and	r24, r24
    1f66:	19 f0       	breq	.+6      	; 0x1f6e <dtoa_prf+0xa8>
    1f68:	31 93       	st	Z+, r19
    1f6a:	81 50       	subi	r24, 0x01	; 1
    1f6c:	fb cf       	rjmp	.-10     	; 0x1f64 <dtoa_prf+0x9e>
    1f6e:	c2 0e       	add	r12, r18
    1f70:	d1 1c       	adc	r13, r1
    1f72:	20 e0       	ldi	r18, 0x00	; 0
    1f74:	99 23       	and	r25, r25
    1f76:	29 f0       	breq	.+10     	; 0x1f82 <dtoa_prf+0xbc>
    1f78:	d6 01       	movw	r26, r12
    1f7a:	9c 93       	st	X, r25
    1f7c:	f6 01       	movw	r30, r12
    1f7e:	31 96       	adiw	r30, 0x01	; 1
    1f80:	6f 01       	movw	r12, r30
    1f82:	c6 01       	movw	r24, r12
    1f84:	03 96       	adiw	r24, 0x03	; 3
    1f86:	e2 fe       	sbrs	r14, 2
    1f88:	0a c0       	rjmp	.+20     	; 0x1f9e <dtoa_prf+0xd8>
    1f8a:	3e e4       	ldi	r19, 0x4E	; 78
    1f8c:	d6 01       	movw	r26, r12
    1f8e:	3c 93       	st	X, r19
    1f90:	41 e4       	ldi	r20, 0x41	; 65
    1f92:	11 96       	adiw	r26, 0x01	; 1
    1f94:	4c 93       	st	X, r20
    1f96:	11 97       	sbiw	r26, 0x01	; 1
    1f98:	12 96       	adiw	r26, 0x02	; 2
    1f9a:	3c 93       	st	X, r19
    1f9c:	06 c0       	rjmp	.+12     	; 0x1faa <dtoa_prf+0xe4>
    1f9e:	3e e6       	ldi	r19, 0x6E	; 110
    1fa0:	f6 01       	movw	r30, r12
    1fa2:	30 83       	st	Z, r19
    1fa4:	41 e6       	ldi	r20, 0x61	; 97
    1fa6:	41 83       	std	Z+1, r20	; 0x01
    1fa8:	32 83       	std	Z+2, r19	; 0x02
    1faa:	fc 01       	movw	r30, r24
    1fac:	32 2f       	mov	r19, r18
    1fae:	40 e2       	ldi	r20, 0x20	; 32
    1fb0:	33 23       	and	r19, r19
    1fb2:	09 f4       	brne	.+2      	; 0x1fb6 <dtoa_prf+0xf0>
    1fb4:	42 c0       	rjmp	.+132    	; 0x203a <dtoa_prf+0x174>
    1fb6:	41 93       	st	Z+, r20
    1fb8:	31 50       	subi	r19, 0x01	; 1
    1fba:	fa cf       	rjmp	.-12     	; 0x1fb0 <dtoa_prf+0xea>
    1fbc:	82 ff       	sbrs	r24, 2
    1fbe:	44 c0       	rjmp	.+136    	; 0x2048 <dtoa_prf+0x182>
    1fc0:	91 11       	cpse	r25, r1
    1fc2:	02 c0       	rjmp	.+4      	; 0x1fc8 <dtoa_prf+0x102>
    1fc4:	83 e0       	ldi	r24, 0x03	; 3
    1fc6:	01 c0       	rjmp	.+2      	; 0x1fca <dtoa_prf+0x104>
    1fc8:	84 e0       	ldi	r24, 0x04	; 4
    1fca:	81 17       	cp	r24, r17
    1fcc:	18 f4       	brcc	.+6      	; 0x1fd4 <dtoa_prf+0x10e>
    1fce:	21 2f       	mov	r18, r17
    1fd0:	28 1b       	sub	r18, r24
    1fd2:	01 c0       	rjmp	.+2      	; 0x1fd6 <dtoa_prf+0x110>
    1fd4:	20 e0       	ldi	r18, 0x00	; 0
    1fd6:	e1 11       	cpse	r30, r1
    1fd8:	0b c0       	rjmp	.+22     	; 0x1ff0 <dtoa_prf+0x12a>
    1fda:	f6 01       	movw	r30, r12
    1fdc:	82 2f       	mov	r24, r18
    1fde:	30 e2       	ldi	r19, 0x20	; 32
    1fe0:	88 23       	and	r24, r24
    1fe2:	19 f0       	breq	.+6      	; 0x1fea <dtoa_prf+0x124>
    1fe4:	31 93       	st	Z+, r19
    1fe6:	81 50       	subi	r24, 0x01	; 1
    1fe8:	fb cf       	rjmp	.-10     	; 0x1fe0 <dtoa_prf+0x11a>
    1fea:	c2 0e       	add	r12, r18
    1fec:	d1 1c       	adc	r13, r1
    1fee:	20 e0       	ldi	r18, 0x00	; 0
    1ff0:	99 23       	and	r25, r25
    1ff2:	29 f0       	breq	.+10     	; 0x1ffe <dtoa_prf+0x138>
    1ff4:	d6 01       	movw	r26, r12
    1ff6:	9c 93       	st	X, r25
    1ff8:	f6 01       	movw	r30, r12
    1ffa:	31 96       	adiw	r30, 0x01	; 1
    1ffc:	6f 01       	movw	r12, r30
    1ffe:	c6 01       	movw	r24, r12
    2000:	03 96       	adiw	r24, 0x03	; 3
    2002:	e2 fe       	sbrs	r14, 2
    2004:	0b c0       	rjmp	.+22     	; 0x201c <dtoa_prf+0x156>
    2006:	39 e4       	ldi	r19, 0x49	; 73
    2008:	d6 01       	movw	r26, r12
    200a:	3c 93       	st	X, r19
    200c:	3e e4       	ldi	r19, 0x4E	; 78
    200e:	11 96       	adiw	r26, 0x01	; 1
    2010:	3c 93       	st	X, r19
    2012:	11 97       	sbiw	r26, 0x01	; 1
    2014:	36 e4       	ldi	r19, 0x46	; 70
    2016:	12 96       	adiw	r26, 0x02	; 2
    2018:	3c 93       	st	X, r19
    201a:	07 c0       	rjmp	.+14     	; 0x202a <dtoa_prf+0x164>
    201c:	39 e6       	ldi	r19, 0x69	; 105
    201e:	f6 01       	movw	r30, r12
    2020:	30 83       	st	Z, r19
    2022:	3e e6       	ldi	r19, 0x6E	; 110
    2024:	31 83       	std	Z+1, r19	; 0x01
    2026:	36 e6       	ldi	r19, 0x66	; 102
    2028:	32 83       	std	Z+2, r19	; 0x02
    202a:	fc 01       	movw	r30, r24
    202c:	32 2f       	mov	r19, r18
    202e:	40 e2       	ldi	r20, 0x20	; 32
    2030:	33 23       	and	r19, r19
    2032:	19 f0       	breq	.+6      	; 0x203a <dtoa_prf+0x174>
    2034:	41 93       	st	Z+, r20
    2036:	31 50       	subi	r19, 0x01	; 1
    2038:	fb cf       	rjmp	.-10     	; 0x2030 <dtoa_prf+0x16a>
    203a:	fc 01       	movw	r30, r24
    203c:	e2 0f       	add	r30, r18
    203e:	f1 1d       	adc	r31, r1
    2040:	10 82       	st	Z, r1
    2042:	8e ef       	ldi	r24, 0xFE	; 254
    2044:	9f ef       	ldi	r25, 0xFF	; 255
    2046:	b7 c0       	rjmp	.+366    	; 0x21b6 <dtoa_prf+0x2f0>
    2048:	f1 e0       	ldi	r31, 0x01	; 1
    204a:	91 11       	cpse	r25, r1
    204c:	01 c0       	rjmp	.+2      	; 0x2050 <dtoa_prf+0x18a>
    204e:	f0 e0       	ldi	r31, 0x00	; 0
    2050:	6f 2f       	mov	r22, r31
    2052:	70 e0       	ldi	r23, 0x00	; 0
    2054:	14 16       	cp	r1, r20
    2056:	15 06       	cpc	r1, r21
    2058:	24 f4       	brge	.+8      	; 0x2062 <dtoa_prf+0x19c>
    205a:	9a 01       	movw	r18, r20
    205c:	2f 5f       	subi	r18, 0xFF	; 255
    205e:	3f 4f       	sbci	r19, 0xFF	; 255
    2060:	02 c0       	rjmp	.+4      	; 0x2066 <dtoa_prf+0x1a0>
    2062:	21 e0       	ldi	r18, 0x01	; 1
    2064:	30 e0       	ldi	r19, 0x00	; 0
    2066:	26 0f       	add	r18, r22
    2068:	37 1f       	adc	r19, r23
    206a:	bb 20       	and	r11, r11
    206c:	29 f0       	breq	.+10     	; 0x2078 <dtoa_prf+0x1b2>
    206e:	6b 2d       	mov	r22, r11
    2070:	70 e0       	ldi	r23, 0x00	; 0
    2072:	6f 5f       	subi	r22, 0xFF	; 255
    2074:	7f 4f       	sbci	r23, 0xFF	; 255
    2076:	02 c0       	rjmp	.+4      	; 0x207c <dtoa_prf+0x1b6>
    2078:	60 e0       	ldi	r22, 0x00	; 0
    207a:	70 e0       	ldi	r23, 0x00	; 0
    207c:	26 0f       	add	r18, r22
    207e:	37 1f       	adc	r19, r23
    2080:	61 2f       	mov	r22, r17
    2082:	70 e0       	ldi	r23, 0x00	; 0
    2084:	26 17       	cp	r18, r22
    2086:	37 07       	cpc	r19, r23
    2088:	1c f4       	brge	.+6      	; 0x2090 <dtoa_prf+0x1ca>
    208a:	12 1b       	sub	r17, r18
    208c:	21 2f       	mov	r18, r17
    208e:	01 c0       	rjmp	.+2      	; 0x2092 <dtoa_prf+0x1cc>
    2090:	20 e0       	ldi	r18, 0x00	; 0
    2092:	3e 2d       	mov	r19, r14
    2094:	38 71       	andi	r19, 0x18	; 24
    2096:	59 f4       	brne	.+22     	; 0x20ae <dtoa_prf+0x1e8>
    2098:	d6 01       	movw	r26, r12
    209a:	32 2f       	mov	r19, r18
    209c:	60 e2       	ldi	r22, 0x20	; 32
    209e:	33 23       	and	r19, r19
    20a0:	19 f0       	breq	.+6      	; 0x20a8 <dtoa_prf+0x1e2>
    20a2:	6d 93       	st	X+, r22
    20a4:	31 50       	subi	r19, 0x01	; 1
    20a6:	fb cf       	rjmp	.-10     	; 0x209e <dtoa_prf+0x1d8>
    20a8:	c2 0e       	add	r12, r18
    20aa:	d1 1c       	adc	r13, r1
    20ac:	20 e0       	ldi	r18, 0x00	; 0
    20ae:	ff 23       	and	r31, r31
    20b0:	31 f0       	breq	.+12     	; 0x20be <dtoa_prf+0x1f8>
    20b2:	d6 01       	movw	r26, r12
    20b4:	9c 93       	st	X, r25
    20b6:	b6 01       	movw	r22, r12
    20b8:	6f 5f       	subi	r22, 0xFF	; 255
    20ba:	7f 4f       	sbci	r23, 0xFF	; 255
    20bc:	6b 01       	movw	r12, r22
    20be:	e1 11       	cpse	r30, r1
    20c0:	0b c0       	rjmp	.+22     	; 0x20d8 <dtoa_prf+0x212>
    20c2:	f6 01       	movw	r30, r12
    20c4:	92 2f       	mov	r25, r18
    20c6:	30 e3       	ldi	r19, 0x30	; 48
    20c8:	99 23       	and	r25, r25
    20ca:	19 f0       	breq	.+6      	; 0x20d2 <dtoa_prf+0x20c>
    20cc:	31 93       	st	Z+, r19
    20ce:	91 50       	subi	r25, 0x01	; 1
    20d0:	fb cf       	rjmp	.-10     	; 0x20c8 <dtoa_prf+0x202>
    20d2:	c2 0e       	add	r12, r18
    20d4:	d1 1c       	adc	r13, r1
    20d6:	20 e0       	ldi	r18, 0x00	; 0
    20d8:	9f 2d       	mov	r25, r15
    20da:	94 0f       	add	r25, r20
    20dc:	3a 81       	ldd	r19, Y+2	; 0x02
    20de:	78 2f       	mov	r23, r24
    20e0:	70 71       	andi	r23, 0x10	; 16
    20e2:	a7 2e       	mov	r10, r23
    20e4:	84 ff       	sbrs	r24, 4
    20e6:	03 c0       	rjmp	.+6      	; 0x20ee <dtoa_prf+0x228>
    20e8:	31 33       	cpi	r19, 0x31	; 49
    20ea:	09 f4       	brne	.+2      	; 0x20ee <dtoa_prf+0x228>
    20ec:	91 50       	subi	r25, 0x01	; 1
    20ee:	19 16       	cp	r1, r25
    20f0:	24 f4       	brge	.+8      	; 0x20fa <dtoa_prf+0x234>
    20f2:	99 30       	cpi	r25, 0x09	; 9
    20f4:	18 f0       	brcs	.+6      	; 0x20fc <dtoa_prf+0x236>
    20f6:	98 e0       	ldi	r25, 0x08	; 8
    20f8:	01 c0       	rjmp	.+2      	; 0x20fc <dtoa_prf+0x236>
    20fa:	91 e0       	ldi	r25, 0x01	; 1
    20fc:	e4 2f       	mov	r30, r20
    20fe:	85 2f       	mov	r24, r21
    2100:	57 ff       	sbrs	r21, 7
    2102:	02 c0       	rjmp	.+4      	; 0x2108 <dtoa_prf+0x242>
    2104:	e0 e0       	ldi	r30, 0x00	; 0
    2106:	80 e0       	ldi	r24, 0x00	; 0
    2108:	6e 2f       	mov	r22, r30
    210a:	78 2f       	mov	r23, r24
    210c:	e0 e0       	ldi	r30, 0x00	; 0
    210e:	f0 e0       	ldi	r31, 0x00	; 0
    2110:	ae e2       	ldi	r26, 0x2E	; 46
    2112:	9a 2e       	mov	r9, r26
    2114:	3a 01       	movw	r6, r20
    2116:	69 1a       	sub	r6, r25
    2118:	71 08       	sbc	r7, r1
    211a:	2a 01       	movw	r4, r20
    211c:	46 1a       	sub	r4, r22
    211e:	57 0a       	sbc	r5, r23
    2120:	0b 2d       	mov	r16, r11
    2122:	10 e0       	ldi	r17, 0x00	; 0
    2124:	11 95       	neg	r17
    2126:	01 95       	neg	r16
    2128:	11 09       	sbc	r17, r1
    212a:	6f 3f       	cpi	r22, 0xFF	; 255
    212c:	8f ef       	ldi	r24, 0xFF	; 255
    212e:	78 07       	cpc	r23, r24
    2130:	29 f4       	brne	.+10     	; 0x213c <dtoa_prf+0x276>
    2132:	d6 01       	movw	r26, r12
    2134:	9c 92       	st	X, r9
    2136:	c6 01       	movw	r24, r12
    2138:	01 96       	adiw	r24, 0x01	; 1
    213a:	6c 01       	movw	r12, r24
    213c:	46 17       	cp	r20, r22
    213e:	57 07       	cpc	r21, r23
    2140:	84 f0       	brlt	.+32     	; 0x2162 <dtoa_prf+0x29c>
    2142:	66 16       	cp	r6, r22
    2144:	77 06       	cpc	r7, r23
    2146:	6c f4       	brge	.+26     	; 0x2162 <dtoa_prf+0x29c>
    2148:	7f 01       	movw	r14, r30
    214a:	e4 0c       	add	r14, r4
    214c:	f5 1c       	adc	r15, r5
    214e:	a1 e0       	ldi	r26, 0x01	; 1
    2150:	b0 e0       	ldi	r27, 0x00	; 0
    2152:	ac 0f       	add	r26, r28
    2154:	bd 1f       	adc	r27, r29
    2156:	ea 0e       	add	r14, r26
    2158:	fb 1e       	adc	r15, r27
    215a:	d7 01       	movw	r26, r14
    215c:	11 96       	adiw	r26, 0x01	; 1
    215e:	bc 90       	ld	r11, X
    2160:	02 c0       	rjmp	.+4      	; 0x2166 <dtoa_prf+0x2a0>
    2162:	90 e3       	ldi	r25, 0x30	; 48
    2164:	b9 2e       	mov	r11, r25
    2166:	61 50       	subi	r22, 0x01	; 1
    2168:	71 09       	sbc	r23, r1
    216a:	31 96       	adiw	r30, 0x01	; 1
    216c:	c6 01       	movw	r24, r12
    216e:	01 96       	adiw	r24, 0x01	; 1
    2170:	7c 01       	movw	r14, r24
    2172:	60 17       	cp	r22, r16
    2174:	71 07       	cpc	r23, r17
    2176:	24 f0       	brlt	.+8      	; 0x2180 <dtoa_prf+0x2ba>
    2178:	d6 01       	movw	r26, r12
    217a:	bc 92       	st	X, r11
    217c:	6c 01       	movw	r12, r24
    217e:	d5 cf       	rjmp	.-86     	; 0x212a <dtoa_prf+0x264>
    2180:	64 17       	cp	r22, r20
    2182:	75 07       	cpc	r23, r21
    2184:	41 f4       	brne	.+16     	; 0x2196 <dtoa_prf+0x2d0>
    2186:	36 33       	cpi	r19, 0x36	; 54
    2188:	20 f4       	brcc	.+8      	; 0x2192 <dtoa_prf+0x2cc>
    218a:	35 33       	cpi	r19, 0x35	; 53
    218c:	21 f4       	brne	.+8      	; 0x2196 <dtoa_prf+0x2d0>
    218e:	a1 10       	cpse	r10, r1
    2190:	02 c0       	rjmp	.+4      	; 0x2196 <dtoa_prf+0x2d0>
    2192:	81 e3       	ldi	r24, 0x31	; 49
    2194:	b8 2e       	mov	r11, r24
    2196:	f6 01       	movw	r30, r12
    2198:	b0 82       	st	Z, r11
    219a:	f7 01       	movw	r30, r14
    219c:	82 2f       	mov	r24, r18
    219e:	90 e2       	ldi	r25, 0x20	; 32
    21a0:	88 23       	and	r24, r24
    21a2:	19 f0       	breq	.+6      	; 0x21aa <dtoa_prf+0x2e4>
    21a4:	91 93       	st	Z+, r25
    21a6:	81 50       	subi	r24, 0x01	; 1
    21a8:	fb cf       	rjmp	.-10     	; 0x21a0 <dtoa_prf+0x2da>
    21aa:	f7 01       	movw	r30, r14
    21ac:	e2 0f       	add	r30, r18
    21ae:	f1 1d       	adc	r31, r1
    21b0:	10 82       	st	Z, r1
    21b2:	80 e0       	ldi	r24, 0x00	; 0
    21b4:	90 e0       	ldi	r25, 0x00	; 0
    21b6:	29 96       	adiw	r28, 0x09	; 9
    21b8:	0f b6       	in	r0, 0x3f	; 63
    21ba:	f8 94       	cli
    21bc:	de bf       	out	0x3e, r29	; 62
    21be:	0f be       	out	0x3f, r0	; 63
    21c0:	cd bf       	out	0x3d, r28	; 61
    21c2:	df 91       	pop	r29
    21c4:	cf 91       	pop	r28
    21c6:	1f 91       	pop	r17
    21c8:	0f 91       	pop	r16
    21ca:	ff 90       	pop	r15
    21cc:	ef 90       	pop	r14
    21ce:	df 90       	pop	r13
    21d0:	cf 90       	pop	r12
    21d2:	bf 90       	pop	r11
    21d4:	af 90       	pop	r10
    21d6:	9f 90       	pop	r9
    21d8:	7f 90       	pop	r7
    21da:	6f 90       	pop	r6
    21dc:	5f 90       	pop	r5
    21de:	4f 90       	pop	r4
    21e0:	08 95       	ret

000021e2 <__ftoa_engine>:
    21e2:	28 30       	cpi	r18, 0x08	; 8
    21e4:	08 f0       	brcs	.+2      	; 0x21e8 <__ftoa_engine+0x6>
    21e6:	27 e0       	ldi	r18, 0x07	; 7
    21e8:	33 27       	eor	r19, r19
    21ea:	da 01       	movw	r26, r20
    21ec:	99 0f       	add	r25, r25
    21ee:	31 1d       	adc	r19, r1
    21f0:	87 fd       	sbrc	r24, 7
    21f2:	91 60       	ori	r25, 0x01	; 1
    21f4:	00 96       	adiw	r24, 0x00	; 0
    21f6:	61 05       	cpc	r22, r1
    21f8:	71 05       	cpc	r23, r1
    21fa:	39 f4       	brne	.+14     	; 0x220a <__ftoa_engine+0x28>
    21fc:	32 60       	ori	r19, 0x02	; 2
    21fe:	2e 5f       	subi	r18, 0xFE	; 254
    2200:	3d 93       	st	X+, r19
    2202:	30 e3       	ldi	r19, 0x30	; 48
    2204:	2a 95       	dec	r18
    2206:	e1 f7       	brne	.-8      	; 0x2200 <__ftoa_engine+0x1e>
    2208:	08 95       	ret
    220a:	9f 3f       	cpi	r25, 0xFF	; 255
    220c:	30 f0       	brcs	.+12     	; 0x221a <__ftoa_engine+0x38>
    220e:	80 38       	cpi	r24, 0x80	; 128
    2210:	71 05       	cpc	r23, r1
    2212:	61 05       	cpc	r22, r1
    2214:	09 f0       	breq	.+2      	; 0x2218 <__ftoa_engine+0x36>
    2216:	3c 5f       	subi	r19, 0xFC	; 252
    2218:	3c 5f       	subi	r19, 0xFC	; 252
    221a:	3d 93       	st	X+, r19
    221c:	91 30       	cpi	r25, 0x01	; 1
    221e:	08 f0       	brcs	.+2      	; 0x2222 <__ftoa_engine+0x40>
    2220:	80 68       	ori	r24, 0x80	; 128
    2222:	91 1d       	adc	r25, r1
    2224:	df 93       	push	r29
    2226:	cf 93       	push	r28
    2228:	1f 93       	push	r17
    222a:	0f 93       	push	r16
    222c:	ff 92       	push	r15
    222e:	ef 92       	push	r14
    2230:	19 2f       	mov	r17, r25
    2232:	98 7f       	andi	r25, 0xF8	; 248
    2234:	96 95       	lsr	r25
    2236:	e9 2f       	mov	r30, r25
    2238:	96 95       	lsr	r25
    223a:	96 95       	lsr	r25
    223c:	e9 0f       	add	r30, r25
    223e:	ff 27       	eor	r31, r31
    2240:	e0 53       	subi	r30, 0x30	; 48
    2242:	ff 4f       	sbci	r31, 0xFF	; 255
    2244:	99 27       	eor	r25, r25
    2246:	33 27       	eor	r19, r19
    2248:	ee 24       	eor	r14, r14
    224a:	ff 24       	eor	r15, r15
    224c:	a7 01       	movw	r20, r14
    224e:	e7 01       	movw	r28, r14
    2250:	05 90       	lpm	r0, Z+
    2252:	08 94       	sec
    2254:	07 94       	ror	r0
    2256:	28 f4       	brcc	.+10     	; 0x2262 <__ftoa_engine+0x80>
    2258:	36 0f       	add	r19, r22
    225a:	e7 1e       	adc	r14, r23
    225c:	f8 1e       	adc	r15, r24
    225e:	49 1f       	adc	r20, r25
    2260:	51 1d       	adc	r21, r1
    2262:	66 0f       	add	r22, r22
    2264:	77 1f       	adc	r23, r23
    2266:	88 1f       	adc	r24, r24
    2268:	99 1f       	adc	r25, r25
    226a:	06 94       	lsr	r0
    226c:	a1 f7       	brne	.-24     	; 0x2256 <__ftoa_engine+0x74>
    226e:	05 90       	lpm	r0, Z+
    2270:	07 94       	ror	r0
    2272:	28 f4       	brcc	.+10     	; 0x227e <__ftoa_engine+0x9c>
    2274:	e7 0e       	add	r14, r23
    2276:	f8 1e       	adc	r15, r24
    2278:	49 1f       	adc	r20, r25
    227a:	56 1f       	adc	r21, r22
    227c:	c1 1d       	adc	r28, r1
    227e:	77 0f       	add	r23, r23
    2280:	88 1f       	adc	r24, r24
    2282:	99 1f       	adc	r25, r25
    2284:	66 1f       	adc	r22, r22
    2286:	06 94       	lsr	r0
    2288:	a1 f7       	brne	.-24     	; 0x2272 <__ftoa_engine+0x90>
    228a:	05 90       	lpm	r0, Z+
    228c:	07 94       	ror	r0
    228e:	28 f4       	brcc	.+10     	; 0x229a <__ftoa_engine+0xb8>
    2290:	f8 0e       	add	r15, r24
    2292:	49 1f       	adc	r20, r25
    2294:	56 1f       	adc	r21, r22
    2296:	c7 1f       	adc	r28, r23
    2298:	d1 1d       	adc	r29, r1
    229a:	88 0f       	add	r24, r24
    229c:	99 1f       	adc	r25, r25
    229e:	66 1f       	adc	r22, r22
    22a0:	77 1f       	adc	r23, r23
    22a2:	06 94       	lsr	r0
    22a4:	a1 f7       	brne	.-24     	; 0x228e <__ftoa_engine+0xac>
    22a6:	05 90       	lpm	r0, Z+
    22a8:	07 94       	ror	r0
    22aa:	20 f4       	brcc	.+8      	; 0x22b4 <__ftoa_engine+0xd2>
    22ac:	49 0f       	add	r20, r25
    22ae:	56 1f       	adc	r21, r22
    22b0:	c7 1f       	adc	r28, r23
    22b2:	d8 1f       	adc	r29, r24
    22b4:	99 0f       	add	r25, r25
    22b6:	66 1f       	adc	r22, r22
    22b8:	77 1f       	adc	r23, r23
    22ba:	88 1f       	adc	r24, r24
    22bc:	06 94       	lsr	r0
    22be:	a9 f7       	brne	.-22     	; 0x22aa <__ftoa_engine+0xc8>
    22c0:	84 91       	lpm	r24, Z
    22c2:	10 95       	com	r17
    22c4:	17 70       	andi	r17, 0x07	; 7
    22c6:	41 f0       	breq	.+16     	; 0x22d8 <__ftoa_engine+0xf6>
    22c8:	d6 95       	lsr	r29
    22ca:	c7 95       	ror	r28
    22cc:	57 95       	ror	r21
    22ce:	47 95       	ror	r20
    22d0:	f7 94       	ror	r15
    22d2:	e7 94       	ror	r14
    22d4:	1a 95       	dec	r17
    22d6:	c1 f7       	brne	.-16     	; 0x22c8 <__ftoa_engine+0xe6>
    22d8:	e6 e7       	ldi	r30, 0x76	; 118
    22da:	f0 e0       	ldi	r31, 0x00	; 0
    22dc:	68 94       	set
    22de:	15 90       	lpm	r1, Z+
    22e0:	15 91       	lpm	r17, Z+
    22e2:	35 91       	lpm	r19, Z+
    22e4:	65 91       	lpm	r22, Z+
    22e6:	95 91       	lpm	r25, Z+
    22e8:	05 90       	lpm	r0, Z+
    22ea:	7f e2       	ldi	r23, 0x2F	; 47
    22ec:	73 95       	inc	r23
    22ee:	e1 18       	sub	r14, r1
    22f0:	f1 0a       	sbc	r15, r17
    22f2:	43 0b       	sbc	r20, r19
    22f4:	56 0b       	sbc	r21, r22
    22f6:	c9 0b       	sbc	r28, r25
    22f8:	d0 09       	sbc	r29, r0
    22fa:	c0 f7       	brcc	.-16     	; 0x22ec <__ftoa_engine+0x10a>
    22fc:	e1 0c       	add	r14, r1
    22fe:	f1 1e       	adc	r15, r17
    2300:	43 1f       	adc	r20, r19
    2302:	56 1f       	adc	r21, r22
    2304:	c9 1f       	adc	r28, r25
    2306:	d0 1d       	adc	r29, r0
    2308:	7e f4       	brtc	.+30     	; 0x2328 <__ftoa_engine+0x146>
    230a:	70 33       	cpi	r23, 0x30	; 48
    230c:	11 f4       	brne	.+4      	; 0x2312 <__ftoa_engine+0x130>
    230e:	8a 95       	dec	r24
    2310:	e6 cf       	rjmp	.-52     	; 0x22de <__ftoa_engine+0xfc>
    2312:	e8 94       	clt
    2314:	01 50       	subi	r16, 0x01	; 1
    2316:	30 f0       	brcs	.+12     	; 0x2324 <__ftoa_engine+0x142>
    2318:	08 0f       	add	r16, r24
    231a:	0a f4       	brpl	.+2      	; 0x231e <__ftoa_engine+0x13c>
    231c:	00 27       	eor	r16, r16
    231e:	02 17       	cp	r16, r18
    2320:	08 f4       	brcc	.+2      	; 0x2324 <__ftoa_engine+0x142>
    2322:	20 2f       	mov	r18, r16
    2324:	23 95       	inc	r18
    2326:	02 2f       	mov	r16, r18
    2328:	7a 33       	cpi	r23, 0x3A	; 58
    232a:	28 f0       	brcs	.+10     	; 0x2336 <__ftoa_engine+0x154>
    232c:	79 e3       	ldi	r23, 0x39	; 57
    232e:	7d 93       	st	X+, r23
    2330:	2a 95       	dec	r18
    2332:	e9 f7       	brne	.-6      	; 0x232e <__ftoa_engine+0x14c>
    2334:	10 c0       	rjmp	.+32     	; 0x2356 <__ftoa_engine+0x174>
    2336:	7d 93       	st	X+, r23
    2338:	2a 95       	dec	r18
    233a:	89 f6       	brne	.-94     	; 0x22de <__ftoa_engine+0xfc>
    233c:	06 94       	lsr	r0
    233e:	97 95       	ror	r25
    2340:	67 95       	ror	r22
    2342:	37 95       	ror	r19
    2344:	17 95       	ror	r17
    2346:	17 94       	ror	r1
    2348:	e1 18       	sub	r14, r1
    234a:	f1 0a       	sbc	r15, r17
    234c:	43 0b       	sbc	r20, r19
    234e:	56 0b       	sbc	r21, r22
    2350:	c9 0b       	sbc	r28, r25
    2352:	d0 09       	sbc	r29, r0
    2354:	98 f0       	brcs	.+38     	; 0x237c <__ftoa_engine+0x19a>
    2356:	23 95       	inc	r18
    2358:	7e 91       	ld	r23, -X
    235a:	73 95       	inc	r23
    235c:	7a 33       	cpi	r23, 0x3A	; 58
    235e:	08 f0       	brcs	.+2      	; 0x2362 <__ftoa_engine+0x180>
    2360:	70 e3       	ldi	r23, 0x30	; 48
    2362:	7c 93       	st	X, r23
    2364:	20 13       	cpse	r18, r16
    2366:	b8 f7       	brcc	.-18     	; 0x2356 <__ftoa_engine+0x174>
    2368:	7e 91       	ld	r23, -X
    236a:	70 61       	ori	r23, 0x10	; 16
    236c:	7d 93       	st	X+, r23
    236e:	30 f0       	brcs	.+12     	; 0x237c <__ftoa_engine+0x19a>
    2370:	83 95       	inc	r24
    2372:	71 e3       	ldi	r23, 0x31	; 49
    2374:	7d 93       	st	X+, r23
    2376:	70 e3       	ldi	r23, 0x30	; 48
    2378:	2a 95       	dec	r18
    237a:	e1 f7       	brne	.-8      	; 0x2374 <__ftoa_engine+0x192>
    237c:	11 24       	eor	r1, r1
    237e:	ef 90       	pop	r14
    2380:	ff 90       	pop	r15
    2382:	0f 91       	pop	r16
    2384:	1f 91       	pop	r17
    2386:	cf 91       	pop	r28
    2388:	df 91       	pop	r29
    238a:	99 27       	eor	r25, r25
    238c:	87 fd       	sbrc	r24, 7
    238e:	90 95       	com	r25
    2390:	08 95       	ret

00002392 <strrev>:
    2392:	dc 01       	movw	r26, r24
    2394:	fc 01       	movw	r30, r24
    2396:	67 2f       	mov	r22, r23
    2398:	71 91       	ld	r23, Z+
    239a:	77 23       	and	r23, r23
    239c:	e1 f7       	brne	.-8      	; 0x2396 <strrev+0x4>
    239e:	32 97       	sbiw	r30, 0x02	; 2
    23a0:	04 c0       	rjmp	.+8      	; 0x23aa <strrev+0x18>
    23a2:	7c 91       	ld	r23, X
    23a4:	6d 93       	st	X+, r22
    23a6:	70 83       	st	Z, r23
    23a8:	62 91       	ld	r22, -Z
    23aa:	ae 17       	cp	r26, r30
    23ac:	bf 07       	cpc	r27, r31
    23ae:	c8 f3       	brcs	.-14     	; 0x23a2 <strrev+0x10>
    23b0:	08 95       	ret

000023b2 <eeprom_read_word>:
    23b2:	a8 e1       	ldi	r26, 0x18	; 24
    23b4:	b0 e0       	ldi	r27, 0x00	; 0
    23b6:	42 e0       	ldi	r20, 0x02	; 2
    23b8:	50 e0       	ldi	r21, 0x00	; 0
    23ba:	0c 94 e6 11 	jmp	0x23cc	; 0x23cc <eeprom_read_blraw>

000023be <eeprom_write_word>:
    23be:	0e 94 f4 11 	call	0x23e8	; 0x23e8 <eeprom_write_byte>
    23c2:	27 2f       	mov	r18, r23
    23c4:	0c 94 f5 11 	jmp	0x23ea	; 0x23ea <eeprom_write_r18>

000023c8 <eeprom_read_block>:
    23c8:	dc 01       	movw	r26, r24
    23ca:	cb 01       	movw	r24, r22

000023cc <eeprom_read_blraw>:
    23cc:	fc 01       	movw	r30, r24
    23ce:	f9 99       	sbic	0x1f, 1	; 31
    23d0:	fe cf       	rjmp	.-4      	; 0x23ce <eeprom_read_blraw+0x2>
    23d2:	06 c0       	rjmp	.+12     	; 0x23e0 <eeprom_read_blraw+0x14>
    23d4:	f2 bd       	out	0x22, r31	; 34
    23d6:	e1 bd       	out	0x21, r30	; 33
    23d8:	f8 9a       	sbi	0x1f, 0	; 31
    23da:	31 96       	adiw	r30, 0x01	; 1
    23dc:	00 b4       	in	r0, 0x20	; 32
    23de:	0d 92       	st	X+, r0
    23e0:	41 50       	subi	r20, 0x01	; 1
    23e2:	50 40       	sbci	r21, 0x00	; 0
    23e4:	b8 f7       	brcc	.-18     	; 0x23d4 <eeprom_read_blraw+0x8>
    23e6:	08 95       	ret

000023e8 <eeprom_write_byte>:
    23e8:	26 2f       	mov	r18, r22

000023ea <eeprom_write_r18>:
    23ea:	f9 99       	sbic	0x1f, 1	; 31
    23ec:	fe cf       	rjmp	.-4      	; 0x23ea <eeprom_write_r18>
    23ee:	1f ba       	out	0x1f, r1	; 31
    23f0:	92 bd       	out	0x22, r25	; 34
    23f2:	81 bd       	out	0x21, r24	; 33
    23f4:	20 bd       	out	0x20, r18	; 32
    23f6:	0f b6       	in	r0, 0x3f	; 63
    23f8:	f8 94       	cli
    23fa:	fa 9a       	sbi	0x1f, 2	; 31
    23fc:	f9 9a       	sbi	0x1f, 1	; 31
    23fe:	0f be       	out	0x3f, r0	; 63
    2400:	01 96       	adiw	r24, 0x01	; 1
    2402:	08 95       	ret

00002404 <_exit>:
    2404:	f8 94       	cli

00002406 <__stop_program>:
    2406:	ff cf       	rjmp	.-2      	; 0x2406 <__stop_program>
